	.file	"arrays.c"
	.text
	.globl	func
	.type	func, @function
func:
.LFB0:
	.cfi_startproc
	pushq	%rbp
	.cfi_def_cfa_offset 16
	.cfi_offset 6, -16
	movq	%rsp, %rbp
	.cfi_def_cfa_register 6
	movq	%rdi, -8(%rbp)
	movq	%rsi, -16(%rbp)
	movq	-8(%rbp), %rax
	addq	$28, %rax
	movl	(%rax), %edx
	movq	-16(%rbp), %rax
	addq	$20, %rax
	movl	(%rax), %eax
	addl	%edx, %eax
	popq	%rbp
	.cfi_def_cfa 7, 8
	ret
	.cfi_endproc
.LFE0:
	.size	func, .-func
	.section	.rodata
.LC0:
	.string	"x=%d"
	.text
	.globl	array
	.type	array, @function
array:
.LFB1:
	.cfi_startproc
	pushq	%rbp
	.cfi_def_cfa_offset 16
	.cfi_offset 6, -16
	movq	%rsp, %rbp
	.cfi_def_cfa_register 6
	subq	$112, %rsp
	movl	%edi, -100(%rbp)
	movq	%rsi, -112(%rbp)
	movl	$137, -20(%rbp)
	movl	$3, -72(%rbp)
	leaq	-80(%rbp), %rdx
	leaq	-48(%rbp), %rax
	movq	%rdx, %rsi
	movq	%rax, %rdi
	call	func
	movl	%eax, -84(%rbp)
	movl	-84(%rbp), %eax
	movl	%eax, %esi
	movl	$.LC0, %edi
	movl	$0, %eax
	call	printf
	movl	$0, %eax
	leave
	.cfi_def_cfa 7, 8
	ret
	.cfi_endproc
.LFE1:
	.size	array, .-array
	.ident	"GCC: (Ubuntu 4.8.2-19ubuntu1) 4.8.2"
	.section	.note.GNU-stack,"",@progbits
