GAS LISTING /tmp/cc19xaHC.s 			page 1


   1              		.file	"basic-method.cpp"
   2              		.text
   3              	.Ltext0:
   4              		.align 2
   5              		.globl	_ZN9onefield48setFieldEi
   7              	_ZN9onefield48setFieldEi:
   8              	.LFB1:
   9              		.file 1 "basic-method.cpp"
   1:basic-method.cpp **** class onefield4 {
   2:basic-method.cpp ****   private:
   3:basic-method.cpp ****     int field;
   4:basic-method.cpp ****   public:
   5:basic-method.cpp ****     void setField(int f);
   6:basic-method.cpp ****     int getField() const;
   7:basic-method.cpp **** };
   8:basic-method.cpp **** 
   9:basic-method.cpp **** extern int basicMethod(int argc, const char **argv) {
  10:basic-method.cpp ****     onefield4 of;
  11:basic-method.cpp **** 
  12:basic-method.cpp ****     of.setField(13);
  13:basic-method.cpp **** 
  14:basic-method.cpp ****     onefield4 *ofp = new onefield4;
  15:basic-method.cpp **** 
  16:basic-method.cpp ****     ofp->setField(27);
  17:basic-method.cpp **** 
  18:basic-method.cpp ****     delete ofp;
  19:basic-method.cpp **** 
  20:basic-method.cpp ****     return of.getField();
  21:basic-method.cpp **** }
  22:basic-method.cpp **** 
  23:basic-method.cpp **** 
  24:basic-method.cpp **** void onefield4::setField(int f) {
  10              		.loc 1 24 0
  11              		.cfi_startproc
  12              	.LVL0:
  25:basic-method.cpp ****     this->field = f;
  13              		.loc 1 25 0
  14 0000 8937     		movl	%esi, (%rdi)
  15 0002 C3       		ret
  16              		.cfi_endproc
  17              	.LFE1:
  19 0003 90       		.align 2
  20              		.globl	_ZNK9onefield48getFieldEv
  22              	_ZNK9onefield48getFieldEv:
  23              	.LFB2:
  26:basic-method.cpp **** }
  27:basic-method.cpp **** int onefield4::getField() const {
  24              		.loc 1 27 0
  25              		.cfi_startproc
  26              	.LVL1:
  28:basic-method.cpp ****     return this->field;
  27              		.loc 1 28 0
  28 0004 8B07     		movl	(%rdi), %eax
  29:basic-method.cpp **** }
  29              		.loc 1 29 0
  30 0006 C3       		ret
  31              		.cfi_endproc
GAS LISTING /tmp/cc19xaHC.s 			page 2


  32              	.LFE2:
  34              		.globl	_Z11basicMethodiPPKc
  36              	_Z11basicMethodiPPKc:
  37              	.LFB0:
   9:basic-method.cpp ****     onefield4 of;
  38              		.loc 1 9 0
  39              		.cfi_startproc
  40              	.LVL2:
  41 0007 53       		pushq	%rbx
  42              		.cfi_def_cfa_offset 16
  43              		.cfi_offset 3, -16
  44 0008 4883EC10 		subq	$16, %rsp
  45              		.cfi_def_cfa_offset 32
  46              	.LBB2:
  12:basic-method.cpp **** 
  47              		.loc 1 12 0
  48 000c BE0D0000 		movl	$13, %esi
  48      00
  49              	.LVL3:
  50 0011 4889E7   		movq	%rsp, %rdi
  51              	.LVL4:
  52 0014 E8000000 		call	_ZN9onefield48setFieldEi
  52      00
  53              	.LVL5:
  14:basic-method.cpp **** 
  54              		.loc 1 14 0
  55 0019 BF040000 		movl	$4, %edi
  55      00
  56 001e E8000000 		call	_Znwm
  56      00
  57              	.LVL6:
  58 0023 4889C3   		movq	%rax, %rbx
  59              	.LVL7:
  16:basic-method.cpp **** 
  60              		.loc 1 16 0
  61 0026 BE1B0000 		movl	$27, %esi
  61      00
  62 002b 4889C7   		movq	%rax, %rdi
  63 002e E8000000 		call	_ZN9onefield48setFieldEi
  63      00
  64              	.LVL8:
  18:basic-method.cpp **** 
  65              		.loc 1 18 0
  66 0033 4889DF   		movq	%rbx, %rdi
  67 0036 E8000000 		call	_ZdlPv
  67      00
  68              	.LVL9:
  20:basic-method.cpp **** }
  69              		.loc 1 20 0
  70 003b 4889E7   		movq	%rsp, %rdi
  71 003e E8000000 		call	_ZNK9onefield48getFieldEv
  71      00
  72              	.LVL10:
  73              	.LBE2:
  21:basic-method.cpp **** 
  74              		.loc 1 21 0
  75 0043 4883C410 		addq	$16, %rsp
GAS LISTING /tmp/cc19xaHC.s 			page 3


  76              		.cfi_def_cfa_offset 16
  77 0047 5B       		popq	%rbx
  78              		.cfi_def_cfa_offset 8
  79              	.LVL11:
  80 0048 C3       		ret
  81              		.cfi_endproc
  82              	.LFE0:
  84              	.Letext0:
GAS LISTING /tmp/cc19xaHC.s 			page 4


DEFINED SYMBOLS
                            *ABS*:0000000000000000 basic-method.cpp
     /tmp/cc19xaHC.s:7      .text:0000000000000000 _ZN9onefield48setFieldEi
     /tmp/cc19xaHC.s:22     .text:0000000000000004 _ZNK9onefield48getFieldEv
     /tmp/cc19xaHC.s:36     .text:0000000000000007 _Z11basicMethodiPPKc

UNDEFINED SYMBOLS
_Znwm
_ZdlPv
