	.file	"basic-method.cpp"
	.text
	.globl	main
	.type	main, @function
main:
.LFB0:
	.cfi_startproc
	pushq	%rbp
	.cfi_def_cfa_offset 16
	.cfi_offset 6, -16
	movq	%rsp, %rbp
	.cfi_def_cfa_register 6
	subq	$32, %rsp
	movl	%edi, -20(%rbp)
	movq	%rsi, -32(%rbp)
	leaq	-16(%rbp), %rax
	movl	$13, %esi
	movq	%rax, %rdi
	call	_ZN8onefield8setFieldEi
	movl	$4, %edi
	call	_Znwm
	movq	%rax, -8(%rbp)
	movq	-8(%rbp), %rax
	movl	$27, %esi
	movq	%rax, %rdi
	call	_ZN8onefield8setFieldEi
	movq	-8(%rbp), %rax
	movq	%rax, %rdi
	call	_ZdlPv
	leaq	-16(%rbp), %rax
	movq	%rax, %rdi
	call	_ZNK8onefield8getFieldEv
	leave
	.cfi_def_cfa 7, 8
	ret
	.cfi_endproc
.LFE0:
	.size	main, .-main
	.align 2
	.globl	_ZN8onefield8setFieldEi
	.type	_ZN8onefield8setFieldEi, @function
_ZN8onefield8setFieldEi:
.LFB1:
	.cfi_startproc
	pushq	%rbp
	.cfi_def_cfa_offset 16
	.cfi_offset 6, -16
	movq	%rsp, %rbp
	.cfi_def_cfa_register 6
	movq	%rdi, -8(%rbp)
	movl	%esi, -12(%rbp)
	movq	-8(%rbp), %rax
	movl	-12(%rbp), %edx
	movl	%edx, (%rax)
	popq	%rbp
	.cfi_def_cfa 7, 8
	ret
	.cfi_endproc
.LFE1:
	.size	_ZN8onefield8setFieldEi, .-_ZN8onefield8setFieldEi
	.align 2
	.globl	_ZNK8onefield8getFieldEv
	.type	_ZNK8onefield8getFieldEv, @function
_ZNK8onefield8getFieldEv:
.LFB2:
	.cfi_startproc
	pushq	%rbp
	.cfi_def_cfa_offset 16
	.cfi_offset 6, -16
	movq	%rsp, %rbp
	.cfi_def_cfa_register 6
	movq	%rdi, -8(%rbp)
	movq	-8(%rbp), %rax
	movl	(%rax), %eax
	popq	%rbp
	.cfi_def_cfa 7, 8
	ret
	.cfi_endproc
.LFE2:
	.size	_ZNK8onefield8getFieldEv, .-_ZNK8onefield8getFieldEv
	.ident	"GCC: (Ubuntu 4.8.2-19ubuntu1) 4.8.2"
	.section	.note.GNU-stack,"",@progbits
