GAS LISTING /tmp/cc6KZchP.s 			page 1


   1              		.file	"basic-constructor.cpp"
   2              		.text
   3              	.Ltext0:
   4              		.align 2
   5              		.globl	_ZN9onefield18setFieldEi
   7              	_ZN9onefield18setFieldEi:
   8              	.LFB20:
   9              		.file 1 "basic-constructor.cpp"
   1:basic-constructor.cpp **** #include "stdio.h"
   2:basic-constructor.cpp **** 
   3:basic-constructor.cpp **** class onefield1 {
   4:basic-constructor.cpp ****   private:
   5:basic-constructor.cpp ****     int field;
   6:basic-constructor.cpp ****   public:
   7:basic-constructor.cpp ****     explicit onefield1(int f);
   8:basic-constructor.cpp ****     ~onefield1();
   9:basic-constructor.cpp **** 
  10:basic-constructor.cpp ****     void setField(int f);
  11:basic-constructor.cpp ****     int getField() const;
  12:basic-constructor.cpp **** };
  13:basic-constructor.cpp **** 
  14:basic-constructor.cpp **** int basicConstructor(int argc, const char **argv) {
  15:basic-constructor.cpp ****     onefield1 of(13);
  16:basic-constructor.cpp **** 
  17:basic-constructor.cpp ****     of.setField(12);
  18:basic-constructor.cpp **** 
  19:basic-constructor.cpp ****     onefield1 *ofp = new onefield1(23);
  20:basic-constructor.cpp **** 
  21:basic-constructor.cpp ****     ofp->setField(27);
  22:basic-constructor.cpp **** 
  23:basic-constructor.cpp ****     delete ofp;
  24:basic-constructor.cpp **** 
  25:basic-constructor.cpp ****     return of.getField();
  26:basic-constructor.cpp **** }
  27:basic-constructor.cpp **** 
  28:basic-constructor.cpp **** 
  29:basic-constructor.cpp **** void onefield1::setField(int f) {
  10              		.loc 1 29 0
  11              		.cfi_startproc
  12              	.LVL0:
  30:basic-constructor.cpp ****     this->field = f;
  13              		.loc 1 30 0
  14 0000 8937     		movl	%esi, (%rdi)
  15 0002 C3       		ret
  16              		.cfi_endproc
  17              	.LFE20:
  19 0003 90       		.align 2
  20              		.globl	_ZNK9onefield18getFieldEv
  22              	_ZNK9onefield18getFieldEv:
  23              	.LFB21:
  31:basic-constructor.cpp **** }
  32:basic-constructor.cpp **** int onefield1::getField() const {
  24              		.loc 1 32 0
  25              		.cfi_startproc
  26              	.LVL1:
  33:basic-constructor.cpp ****     return this->field;
  27              		.loc 1 33 0
GAS LISTING /tmp/cc6KZchP.s 			page 2


  28 0004 8B07     		movl	(%rdi), %eax
  34:basic-constructor.cpp **** }
  29              		.loc 1 34 0
  30 0006 C3       		ret
  31              		.cfi_endproc
  32              	.LFE21:
  34              		.section	.rodata.str1.8,"aMS",@progbits,1
  35              		.align 8
  36              	.LC0:
  37 0000 696E6974 		.string	"initial value of field was %d.\n"
  37      69616C20 
  37      76616C75 
  37      65206F66 
  37      20666965 
  38              		.text
  39 0007 90       		.align 2
  40              		.globl	_ZN9onefield1C2Ei
  42              	_ZN9onefield1C2Ei:
  43              	.LFB23:
  35:basic-constructor.cpp **** 
  36:basic-constructor.cpp **** onefield1::onefield1(int f) {
  44              		.loc 1 36 0
  45              		.cfi_startproc
  46              	.LVL2:
  47 0008 4883EC08 		subq	$8, %rsp
  48              		.cfi_def_cfa_offset 16
  49 000c 89F2     		movl	%esi, %edx
  50              	.LBB8:
  37:basic-constructor.cpp ****     field = f;
  51              		.loc 1 37 0
  52 000e 8937     		movl	%esi, (%rdi)
  53              	.LVL3:
  54              	.LBB9:
  55              	.LBB10:
  56              		.file 2 "/usr/include/x86_64-linux-gnu/bits/stdio2.h"
   1:/usr/include/x86_64-linux-gnu/bits/stdio2.h **** /* Checking macros for stdio functions.
   2:/usr/include/x86_64-linux-gnu/bits/stdio2.h ****    Copyright (C) 2004-2014 Free Software Foundation, Inc.
   3:/usr/include/x86_64-linux-gnu/bits/stdio2.h ****    This file is part of the GNU C Library.
   4:/usr/include/x86_64-linux-gnu/bits/stdio2.h **** 
   5:/usr/include/x86_64-linux-gnu/bits/stdio2.h ****    The GNU C Library is free software; you can redistribute it and/or
   6:/usr/include/x86_64-linux-gnu/bits/stdio2.h ****    modify it under the terms of the GNU Lesser General Public
   7:/usr/include/x86_64-linux-gnu/bits/stdio2.h ****    License as published by the Free Software Foundation; either
   8:/usr/include/x86_64-linux-gnu/bits/stdio2.h ****    version 2.1 of the License, or (at your option) any later version.
   9:/usr/include/x86_64-linux-gnu/bits/stdio2.h **** 
  10:/usr/include/x86_64-linux-gnu/bits/stdio2.h ****    The GNU C Library is distributed in the hope that it will be useful,
  11:/usr/include/x86_64-linux-gnu/bits/stdio2.h ****    but WITHOUT ANY WARRANTY; without even the implied warranty of
  12:/usr/include/x86_64-linux-gnu/bits/stdio2.h ****    MERCHANTABILITY or FITNESS FOR A PARTICULAR PURPOSE.  See the GNU
  13:/usr/include/x86_64-linux-gnu/bits/stdio2.h ****    Lesser General Public License for more details.
  14:/usr/include/x86_64-linux-gnu/bits/stdio2.h **** 
  15:/usr/include/x86_64-linux-gnu/bits/stdio2.h ****    You should have received a copy of the GNU Lesser General Public
  16:/usr/include/x86_64-linux-gnu/bits/stdio2.h ****    License along with the GNU C Library; if not, see
  17:/usr/include/x86_64-linux-gnu/bits/stdio2.h ****    <http://www.gnu.org/licenses/>.  */
  18:/usr/include/x86_64-linux-gnu/bits/stdio2.h **** 
  19:/usr/include/x86_64-linux-gnu/bits/stdio2.h **** #ifndef _STDIO_H
  20:/usr/include/x86_64-linux-gnu/bits/stdio2.h **** # error "Never include <bits/stdio2.h> directly; use <stdio.h> instead."
  21:/usr/include/x86_64-linux-gnu/bits/stdio2.h **** #endif
  22:/usr/include/x86_64-linux-gnu/bits/stdio2.h **** 
GAS LISTING /tmp/cc6KZchP.s 			page 3


  23:/usr/include/x86_64-linux-gnu/bits/stdio2.h **** extern int __sprintf_chk (char *__restrict __s, int __flag, size_t __slen,
  24:/usr/include/x86_64-linux-gnu/bits/stdio2.h **** 			  const char *__restrict __format, ...) __THROW;
  25:/usr/include/x86_64-linux-gnu/bits/stdio2.h **** extern int __vsprintf_chk (char *__restrict __s, int __flag, size_t __slen,
  26:/usr/include/x86_64-linux-gnu/bits/stdio2.h **** 			   const char *__restrict __format,
  27:/usr/include/x86_64-linux-gnu/bits/stdio2.h **** 			   _G_va_list __ap) __THROW;
  28:/usr/include/x86_64-linux-gnu/bits/stdio2.h **** 
  29:/usr/include/x86_64-linux-gnu/bits/stdio2.h **** #ifdef __va_arg_pack
  30:/usr/include/x86_64-linux-gnu/bits/stdio2.h **** __fortify_function int
  31:/usr/include/x86_64-linux-gnu/bits/stdio2.h **** __NTH (sprintf (char *__restrict __s, const char *__restrict __fmt, ...))
  32:/usr/include/x86_64-linux-gnu/bits/stdio2.h **** {
  33:/usr/include/x86_64-linux-gnu/bits/stdio2.h ****   return __builtin___sprintf_chk (__s, __USE_FORTIFY_LEVEL - 1,
  34:/usr/include/x86_64-linux-gnu/bits/stdio2.h **** 				  __bos (__s), __fmt, __va_arg_pack ());
  35:/usr/include/x86_64-linux-gnu/bits/stdio2.h **** }
  36:/usr/include/x86_64-linux-gnu/bits/stdio2.h **** #elif !defined __cplusplus
  37:/usr/include/x86_64-linux-gnu/bits/stdio2.h **** # define sprintf(str, ...) \
  38:/usr/include/x86_64-linux-gnu/bits/stdio2.h ****   __builtin___sprintf_chk (str, __USE_FORTIFY_LEVEL - 1, __bos (str), \
  39:/usr/include/x86_64-linux-gnu/bits/stdio2.h **** 			   __VA_ARGS__)
  40:/usr/include/x86_64-linux-gnu/bits/stdio2.h **** #endif
  41:/usr/include/x86_64-linux-gnu/bits/stdio2.h **** 
  42:/usr/include/x86_64-linux-gnu/bits/stdio2.h **** __fortify_function int
  43:/usr/include/x86_64-linux-gnu/bits/stdio2.h **** __NTH (vsprintf (char *__restrict __s, const char *__restrict __fmt,
  44:/usr/include/x86_64-linux-gnu/bits/stdio2.h **** 		 _G_va_list __ap))
  45:/usr/include/x86_64-linux-gnu/bits/stdio2.h **** {
  46:/usr/include/x86_64-linux-gnu/bits/stdio2.h ****   return __builtin___vsprintf_chk (__s, __USE_FORTIFY_LEVEL - 1,
  47:/usr/include/x86_64-linux-gnu/bits/stdio2.h **** 				   __bos (__s), __fmt, __ap);
  48:/usr/include/x86_64-linux-gnu/bits/stdio2.h **** }
  49:/usr/include/x86_64-linux-gnu/bits/stdio2.h **** 
  50:/usr/include/x86_64-linux-gnu/bits/stdio2.h **** #if defined __USE_BSD || defined __USE_ISOC99 || defined __USE_UNIX98
  51:/usr/include/x86_64-linux-gnu/bits/stdio2.h **** 
  52:/usr/include/x86_64-linux-gnu/bits/stdio2.h **** extern int __snprintf_chk (char *__restrict __s, size_t __n, int __flag,
  53:/usr/include/x86_64-linux-gnu/bits/stdio2.h **** 			   size_t __slen, const char *__restrict __format,
  54:/usr/include/x86_64-linux-gnu/bits/stdio2.h **** 			   ...) __THROW;
  55:/usr/include/x86_64-linux-gnu/bits/stdio2.h **** extern int __vsnprintf_chk (char *__restrict __s, size_t __n, int __flag,
  56:/usr/include/x86_64-linux-gnu/bits/stdio2.h **** 			    size_t __slen, const char *__restrict __format,
  57:/usr/include/x86_64-linux-gnu/bits/stdio2.h **** 			    _G_va_list __ap) __THROW;
  58:/usr/include/x86_64-linux-gnu/bits/stdio2.h **** 
  59:/usr/include/x86_64-linux-gnu/bits/stdio2.h **** # ifdef __va_arg_pack
  60:/usr/include/x86_64-linux-gnu/bits/stdio2.h **** __fortify_function int
  61:/usr/include/x86_64-linux-gnu/bits/stdio2.h **** __NTH (snprintf (char *__restrict __s, size_t __n,
  62:/usr/include/x86_64-linux-gnu/bits/stdio2.h **** 		 const char *__restrict __fmt, ...))
  63:/usr/include/x86_64-linux-gnu/bits/stdio2.h **** {
  64:/usr/include/x86_64-linux-gnu/bits/stdio2.h ****   return __builtin___snprintf_chk (__s, __n, __USE_FORTIFY_LEVEL - 1,
  65:/usr/include/x86_64-linux-gnu/bits/stdio2.h **** 				   __bos (__s), __fmt, __va_arg_pack ());
  66:/usr/include/x86_64-linux-gnu/bits/stdio2.h **** }
  67:/usr/include/x86_64-linux-gnu/bits/stdio2.h **** # elif !defined __cplusplus
  68:/usr/include/x86_64-linux-gnu/bits/stdio2.h **** #  define snprintf(str, len, ...) \
  69:/usr/include/x86_64-linux-gnu/bits/stdio2.h ****   __builtin___snprintf_chk (str, len, __USE_FORTIFY_LEVEL - 1, __bos (str), \
  70:/usr/include/x86_64-linux-gnu/bits/stdio2.h **** 			    __VA_ARGS__)
  71:/usr/include/x86_64-linux-gnu/bits/stdio2.h **** # endif
  72:/usr/include/x86_64-linux-gnu/bits/stdio2.h **** 
  73:/usr/include/x86_64-linux-gnu/bits/stdio2.h **** __fortify_function int
  74:/usr/include/x86_64-linux-gnu/bits/stdio2.h **** __NTH (vsnprintf (char *__restrict __s, size_t __n,
  75:/usr/include/x86_64-linux-gnu/bits/stdio2.h **** 		  const char *__restrict __fmt, _G_va_list __ap))
  76:/usr/include/x86_64-linux-gnu/bits/stdio2.h **** {
  77:/usr/include/x86_64-linux-gnu/bits/stdio2.h ****   return __builtin___vsnprintf_chk (__s, __n, __USE_FORTIFY_LEVEL - 1,
  78:/usr/include/x86_64-linux-gnu/bits/stdio2.h **** 				    __bos (__s), __fmt, __ap);
  79:/usr/include/x86_64-linux-gnu/bits/stdio2.h **** }
GAS LISTING /tmp/cc6KZchP.s 			page 4


  80:/usr/include/x86_64-linux-gnu/bits/stdio2.h **** 
  81:/usr/include/x86_64-linux-gnu/bits/stdio2.h **** #endif
  82:/usr/include/x86_64-linux-gnu/bits/stdio2.h **** 
  83:/usr/include/x86_64-linux-gnu/bits/stdio2.h **** #if __USE_FORTIFY_LEVEL > 1
  84:/usr/include/x86_64-linux-gnu/bits/stdio2.h **** 
  85:/usr/include/x86_64-linux-gnu/bits/stdio2.h **** extern int __fprintf_chk (FILE *__restrict __stream, int __flag,
  86:/usr/include/x86_64-linux-gnu/bits/stdio2.h **** 			  const char *__restrict __format, ...);
  87:/usr/include/x86_64-linux-gnu/bits/stdio2.h **** extern int __printf_chk (int __flag, const char *__restrict __format, ...);
  88:/usr/include/x86_64-linux-gnu/bits/stdio2.h **** extern int __vfprintf_chk (FILE *__restrict __stream, int __flag,
  89:/usr/include/x86_64-linux-gnu/bits/stdio2.h **** 			   const char *__restrict __format, _G_va_list __ap);
  90:/usr/include/x86_64-linux-gnu/bits/stdio2.h **** extern int __vprintf_chk (int __flag, const char *__restrict __format,
  91:/usr/include/x86_64-linux-gnu/bits/stdio2.h **** 			  _G_va_list __ap);
  92:/usr/include/x86_64-linux-gnu/bits/stdio2.h **** 
  93:/usr/include/x86_64-linux-gnu/bits/stdio2.h **** # ifdef __va_arg_pack
  94:/usr/include/x86_64-linux-gnu/bits/stdio2.h **** __fortify_function int
  95:/usr/include/x86_64-linux-gnu/bits/stdio2.h **** fprintf (FILE *__restrict __stream, const char *__restrict __fmt, ...)
  96:/usr/include/x86_64-linux-gnu/bits/stdio2.h **** {
  97:/usr/include/x86_64-linux-gnu/bits/stdio2.h ****   return __fprintf_chk (__stream, __USE_FORTIFY_LEVEL - 1, __fmt,
  98:/usr/include/x86_64-linux-gnu/bits/stdio2.h **** 			__va_arg_pack ());
  99:/usr/include/x86_64-linux-gnu/bits/stdio2.h **** }
 100:/usr/include/x86_64-linux-gnu/bits/stdio2.h **** 
 101:/usr/include/x86_64-linux-gnu/bits/stdio2.h **** __fortify_function int
 102:/usr/include/x86_64-linux-gnu/bits/stdio2.h **** printf (const char *__restrict __fmt, ...)
 103:/usr/include/x86_64-linux-gnu/bits/stdio2.h **** {
 104:/usr/include/x86_64-linux-gnu/bits/stdio2.h ****   return __printf_chk (__USE_FORTIFY_LEVEL - 1, __fmt, __va_arg_pack ());
  57              		.loc 2 104 0
  58 0010 BE000000 		movl	$.LC0, %esi
  58      00
  59              	.LVL4:
  60 0015 BF010000 		movl	$1, %edi
  60      00
  61              	.LVL5:
  62 001a B8000000 		movl	$0, %eax
  62      00
  63 001f E8000000 		call	__printf_chk
  63      00
  64              	.LVL6:
  65              	.LBE10:
  66              	.LBE9:
  67              	.LBE8:
  38:basic-constructor.cpp ****     printf("initial value of field was %d.\n", field);
  39:basic-constructor.cpp **** }
  68              		.loc 1 39 0
  69 0024 4883C408 		addq	$8, %rsp
  70              		.cfi_def_cfa_offset 8
  71 0028 C3       		ret
  72              		.cfi_endproc
  73              	.LFE23:
  75              		.globl	_ZN9onefield1C1Ei
  76              		.set	_ZN9onefield1C1Ei,_ZN9onefield1C2Ei
  77              		.section	.rodata.str1.1,"aMS",@progbits,1
  78              	.LC1:
  79 0000 4C617374 		.string	"Last value of field was %d.\n"
  79      2076616C 
  79      7565206F 
  79      66206669 
  79      656C6420 
GAS LISTING /tmp/cc6KZchP.s 			page 5


  80              		.text
  81 0029 90       		.align 2
  82              		.globl	_ZN9onefield1D2Ev
  84              	_ZN9onefield1D2Ev:
  85              	.LFB26:
  40:basic-constructor.cpp **** 
  41:basic-constructor.cpp **** onefield1::~onefield1() {
  86              		.loc 1 41 0
  87              		.cfi_startproc
  88              		.cfi_personality 0x3,__gxx_personality_v0
  89              		.cfi_lsda 0x3,.LLSDA26
  90              	.LVL7:
  91 002a 4883EC08 		subq	$8, %rsp
  92              		.cfi_def_cfa_offset 16
  93              	.LVL8:
  94              	.LBB11:
  95              	.LBB12:
  96              	.LBB13:
  97              		.loc 2 104 0
  98 002e 8B17     		movl	(%rdi), %edx
  99 0030 BE000000 		movl	$.LC1, %esi
  99      00
 100 0035 BF010000 		movl	$1, %edi
 100      00
 101              	.LVL9:
 102 003a B8000000 		movl	$0, %eax
 102      00
 103 003f E8000000 		call	__printf_chk
 103      00
 104              	.LVL10:
 105              	.LBE13:
 106              	.LBE12:
 107              	.LBE11:
  42:basic-constructor.cpp ****     printf("Last value of field was %d.\n", field);
  43:basic-constructor.cpp **** }
 108              		.loc 1 43 0
 109 0044 4883C408 		addq	$8, %rsp
 110              		.cfi_def_cfa_offset 8
 111 0048 C3       		ret
 112              		.cfi_endproc
 113              	.LFE26:
 114              		.globl	__gxx_personality_v0
 115              		.section	.gcc_except_table,"a",@progbits
 116              	.LLSDA26:
 117 0000 FF       		.byte	0xff
 118 0001 FF       		.byte	0xff
 119 0002 01       		.byte	0x1
 120 0003 00       		.uleb128 .LLSDACSE26-.LLSDACSB26
 121              	.LLSDACSB26:
 122              	.LLSDACSE26:
 123              		.text
 125              		.globl	_ZN9onefield1D1Ev
 126              		.set	_ZN9onefield1D1Ev,_ZN9onefield1D2Ev
 127              		.globl	_Z16basicConstructoriPPKc
 129              	_Z16basicConstructoriPPKc:
 130              	.LFB19:
  14:basic-constructor.cpp ****     onefield1 of(13);
GAS LISTING /tmp/cc6KZchP.s 			page 6


 131              		.loc 1 14 0
 132              		.cfi_startproc
 133              		.cfi_personality 0x3,__gxx_personality_v0
 134              		.cfi_lsda 0x3,.LLSDA19
 135              	.LVL11:
 136 0049 55       		pushq	%rbp
 137              		.cfi_def_cfa_offset 16
 138              		.cfi_offset 6, -16
 139 004a 53       		pushq	%rbx
 140              		.cfi_def_cfa_offset 24
 141              		.cfi_offset 3, -24
 142 004b 4883EC18 		subq	$24, %rsp
 143              		.cfi_def_cfa_offset 48
 144              	.LBB14:
  15:basic-constructor.cpp **** 
 145              		.loc 1 15 0
 146 004f BE0D0000 		movl	$13, %esi
 146      00
 147              	.LVL12:
 148 0054 4889E7   		movq	%rsp, %rdi
 149              	.LVL13:
 150              	.LEHB0:
 151 0057 E8000000 		call	_ZN9onefield1C1Ei
 151      00
 152              	.LEHE0:
 153              	.LVL14:
  17:basic-constructor.cpp **** 
 154              		.loc 1 17 0
 155 005c BE0C0000 		movl	$12, %esi
 155      00
 156 0061 4889E7   		movq	%rsp, %rdi
 157 0064 E8000000 		call	_ZN9onefield18setFieldEi
 157      00
 158              	.LVL15:
  19:basic-constructor.cpp **** 
 159              		.loc 1 19 0
 160 0069 BF040000 		movl	$4, %edi
 160      00
 161              	.LEHB1:
 162 006e E8000000 		call	_Znwm
 162      00
 163              	.LEHE1:
 164              	.LVL16:
 165 0073 4889C3   		movq	%rax, %rbx
 166 0076 BE170000 		movl	$23, %esi
 166      00
 167 007b 4889C7   		movq	%rax, %rdi
 168              	.LEHB2:
 169 007e E8000000 		call	_ZN9onefield1C1Ei
 169      00
 170              	.LEHE2:
 171              	.LVL17:
  21:basic-constructor.cpp **** 
 172              		.loc 1 21 0 discriminator 2
 173 0083 BE1B0000 		movl	$27, %esi
 173      00
 174 0088 4889DF   		movq	%rbx, %rdi
GAS LISTING /tmp/cc6KZchP.s 			page 7


 175 008b E8000000 		call	_ZN9onefield18setFieldEi
 175      00
 176              	.LVL18:
  23:basic-constructor.cpp **** 
 177              		.loc 1 23 0 discriminator 2
 178 0090 4885DB   		testq	%rbx, %rbx
 179 0093 7435     		je	.L8
  23:basic-constructor.cpp **** 
 180              		.loc 1 23 0 is_stmt 0 discriminator 1
 181 0095 4889DF   		movq	%rbx, %rdi
 182 0098 E8000000 		call	_ZN9onefield1D1Ev
 182      00
 183              	.LVL19:
 184 009d 4889DF   		movq	%rbx, %rdi
 185 00a0 E8000000 		call	_ZdlPv
 185      00
 186              	.LVL20:
 187 00a5 EB23     		jmp	.L8
 188              	.LVL21:
 189              	.L12:
 190 00a7 4889C5   		movq	%rax, %rbp
  19:basic-constructor.cpp **** 
 191              		.loc 1 19 0 is_stmt 1
 192 00aa 4889DF   		movq	%rbx, %rdi
 193 00ad E8000000 		call	_ZdlPv
 193      00
 194              	.LVL22:
 195 00b2 4889EB   		movq	%rbp, %rbx
 196 00b5 EB03     		jmp	.L10
 197              	.L11:
 198 00b7 4889C3   		movq	%rax, %rbx
 199              	.L10:
  25:basic-constructor.cpp **** }
 200              		.loc 1 25 0
 201 00ba 4889E7   		movq	%rsp, %rdi
 202 00bd E8000000 		call	_ZN9onefield1D1Ev
 202      00
 203              	.LVL23:
 204 00c2 4889DF   		movq	%rbx, %rdi
 205              	.LEHB3:
 206 00c5 E8000000 		call	_Unwind_Resume
 206      00
 207              	.LEHE3:
 208              	.LVL24:
 209              	.L8:
 210 00ca 4889E7   		movq	%rsp, %rdi
 211 00cd E8000000 		call	_ZNK9onefield18getFieldEv
 211      00
 212              	.LVL25:
 213 00d2 89C3     		movl	%eax, %ebx
 214              	.LVL26:
 215 00d4 4889E7   		movq	%rsp, %rdi
 216 00d7 E8000000 		call	_ZN9onefield1D1Ev
 216      00
 217              	.LVL27:
 218              	.LBE14:
  26:basic-constructor.cpp **** 
GAS LISTING /tmp/cc6KZchP.s 			page 8


 219              		.loc 1 26 0
 220 00dc 89D8     		movl	%ebx, %eax
 221 00de 4883C418 		addq	$24, %rsp
 222              		.cfi_def_cfa_offset 24
 223 00e2 5B       		popq	%rbx
 224              		.cfi_def_cfa_offset 16
 225 00e3 5D       		popq	%rbp
 226              		.cfi_def_cfa_offset 8
 227 00e4 C3       		ret
 228              		.cfi_endproc
 229              	.LFE19:
 230              		.section	.gcc_except_table
 231              	.LLSDA19:
 232 0004 FF       		.byte	0xff
 233 0005 FF       		.byte	0xff
 234 0006 01       		.byte	0x1
 235 0007 10       		.uleb128 .LLSDACSE19-.LLSDACSB19
 236              	.LLSDACSB19:
 237 0008 0E       		.uleb128 .LEHB0-.LFB19
 238 0009 05       		.uleb128 .LEHE0-.LEHB0
 239 000a 00       		.uleb128 0
 240 000b 00       		.uleb128 0
 241 000c 25       		.uleb128 .LEHB1-.LFB19
 242 000d 05       		.uleb128 .LEHE1-.LEHB1
 243 000e 6E       		.uleb128 .L11-.LFB19
 244 000f 00       		.uleb128 0
 245 0010 35       		.uleb128 .LEHB2-.LFB19
 246 0011 05       		.uleb128 .LEHE2-.LEHB2
 247 0012 5E       		.uleb128 .L12-.LFB19
 248 0013 00       		.uleb128 0
 249 0014 7C       		.uleb128 .LEHB3-.LFB19
 250 0015 05       		.uleb128 .LEHE3-.LEHB3
 251 0016 00       		.uleb128 0
 252 0017 00       		.uleb128 0
 253              	.LLSDACSE19:
 254              		.text
 256              	.Letext0:
GAS LISTING /tmp/cc6KZchP.s 			page 9


DEFINED SYMBOLS
                            *ABS*:0000000000000000 basic-constructor.cpp
     /tmp/cc6KZchP.s:7      .text:0000000000000000 _ZN9onefield18setFieldEi
     /tmp/cc6KZchP.s:22     .text:0000000000000004 _ZNK9onefield18getFieldEv
     /tmp/cc6KZchP.s:42     .text:0000000000000008 _ZN9onefield1C2Ei
     /tmp/cc6KZchP.s:42     .text:0000000000000008 _ZN9onefield1C1Ei
     /tmp/cc6KZchP.s:84     .text:000000000000002a _ZN9onefield1D2Ev
     /tmp/cc6KZchP.s:84     .text:000000000000002a _ZN9onefield1D1Ev
     /tmp/cc6KZchP.s:129    .text:0000000000000049 _Z16basicConstructoriPPKc

UNDEFINED SYMBOLS
__printf_chk
__gxx_personality_v0
_Znwm
_ZdlPv
_Unwind_Resume
