GAS LISTING /tmp/cc5rnT6g.s 			page 1


   1              		.file	"basic-constructor.cpp"
   2              		.text
   3              	.Ltext0:
   4              		.globl	main
   6              	main:
   7              	.LFB0:
   8              		.file 1 "basic-constructor.cpp"
   1:basic-constructor.cpp **** #include "stdio.h"
   2:basic-constructor.cpp **** 
   3:basic-constructor.cpp **** class onefield {
   4:basic-constructor.cpp ****   private:
   5:basic-constructor.cpp ****     int field;
   6:basic-constructor.cpp ****   public:
   7:basic-constructor.cpp ****     explicit onefield(int f);
   8:basic-constructor.cpp ****     ~onefield();
   9:basic-constructor.cpp **** 
  10:basic-constructor.cpp ****     void setField(int f);
  11:basic-constructor.cpp ****     int getField() const;
  12:basic-constructor.cpp **** };
  13:basic-constructor.cpp **** 
  14:basic-constructor.cpp **** int main(int argc, char **argv) {
   9              		.loc 1 14 0
  10              		.cfi_startproc
  11              		.cfi_personality 0x3,__gxx_personality_v0
  12              		.cfi_lsda 0x3,.LLSDA0
  13 0000 55       		pushq	%rbp
  14              		.cfi_def_cfa_offset 16
  15              		.cfi_offset 6, -16
  16 0001 4889E5   		movq	%rsp, %rbp
  17              		.cfi_def_cfa_register 6
  18 0004 4154     		pushq	%r12
  19 0006 53       		pushq	%rbx
  20 0007 4883EC20 		subq	$32, %rsp
  21              		.cfi_offset 12, -24
  22              		.cfi_offset 3, -32
  23 000b 897DDC   		movl	%edi, -36(%rbp)
  24 000e 488975D0 		movq	%rsi, -48(%rbp)
  25              	.LBB2:
  15:basic-constructor.cpp ****     onefield of(13);
  26              		.loc 1 15 0
  27 0012 488D45E0 		leaq	-32(%rbp), %rax
  28 0016 BE0D0000 		movl	$13, %esi
  28      00
  29 001b 4889C7   		movq	%rax, %rdi
  30              	.LEHB0:
  31 001e E8000000 		call	_ZN8onefieldC1Ei
  31      00
  32              	.LEHE0:
  16:basic-constructor.cpp **** 
  17:basic-constructor.cpp ****     of.setField(12);
  33              		.loc 1 17 0
  34 0023 488D45E0 		leaq	-32(%rbp), %rax
  35 0027 BE0C0000 		movl	$12, %esi
  35      00
  36 002c 4889C7   		movq	%rax, %rdi
  37 002f E8000000 		call	_ZN8onefield8setFieldEi
  37      00
GAS LISTING /tmp/cc5rnT6g.s 			page 2


  18:basic-constructor.cpp **** 
  19:basic-constructor.cpp ****     onefield *ofp = new onefield(23);
  38              		.loc 1 19 0
  39 0034 BF040000 		movl	$4, %edi
  39      00
  40              	.LEHB1:
  41 0039 E8000000 		call	_Znwm
  41      00
  42              	.LEHE1:
  43 003e 4889C3   		movq	%rax, %rbx
  44 0041 BE170000 		movl	$23, %esi
  44      00
  45 0046 4889DF   		movq	%rbx, %rdi
  46              	.LEHB2:
  47 0049 E8000000 		call	_ZN8onefieldC1Ei
  47      00
  48              	.LEHE2:
  49              		.loc 1 19 0 is_stmt 0 discriminator 2
  50 004e 48895DE8 		movq	%rbx, -24(%rbp)
  20:basic-constructor.cpp **** 
  21:basic-constructor.cpp ****     ofp->setField(27);
  51              		.loc 1 21 0 is_stmt 1 discriminator 2
  52 0052 488B45E8 		movq	-24(%rbp), %rax
  53 0056 BE1B0000 		movl	$27, %esi
  53      00
  54 005b 4889C7   		movq	%rax, %rdi
  55 005e E8000000 		call	_ZN8onefield8setFieldEi
  55      00
  22:basic-constructor.cpp **** 
  23:basic-constructor.cpp ****     delete ofp;
  56              		.loc 1 23 0 discriminator 2
  57 0063 488B5DE8 		movq	-24(%rbp), %rbx
  58 0067 4885DB   		testq	%rbx, %rbx
  59 006a 7410     		je	.L2
  60              		.loc 1 23 0 is_stmt 0 discriminator 1
  61 006c 4889DF   		movq	%rbx, %rdi
  62              	.LEHB3:
  63 006f E8000000 		call	_ZN8onefieldD1Ev
  63      00
  64              	.LEHE3:
  65 0074 4889DF   		movq	%rbx, %rdi
  66 0077 E8000000 		call	_ZdlPv
  66      00
  67              	.L2:
  24:basic-constructor.cpp **** 
  25:basic-constructor.cpp ****     return of.getField();
  68              		.loc 1 25 0 is_stmt 1
  69 007c 488D45E0 		leaq	-32(%rbp), %rax
  70 0080 4889C7   		movq	%rax, %rdi
  71 0083 E8000000 		call	_ZNK8onefield8getFieldEv
  71      00
  72 0088 89C3     		movl	%eax, %ebx
  73 008a 488D45E0 		leaq	-32(%rbp), %rax
  74 008e 4889C7   		movq	%rax, %rdi
  75              	.LEHB4:
  76 0091 E8000000 		call	_ZN8onefieldD1Ev
  76      00
GAS LISTING /tmp/cc5rnT6g.s 			page 3


  77              	.LEHE4:
  78 0096 89D8     		movl	%ebx, %eax
  79 0098 EB2A     		jmp	.L8
  80              	.L7:
  81 009a 4989C4   		movq	%rax, %r12
  19:basic-constructor.cpp **** 
  82              		.loc 1 19 0
  83 009d 4889DF   		movq	%rbx, %rdi
  84 00a0 E8000000 		call	_ZdlPv
  84      00
  85 00a5 4C89E3   		movq	%r12, %rbx
  86 00a8 EB03     		jmp	.L5
  87              	.L6:
  88 00aa 4889C3   		movq	%rax, %rbx
  89              	.L5:
  90              		.loc 1 25 0
  91 00ad 488D45E0 		leaq	-32(%rbp), %rax
  92 00b1 4889C7   		movq	%rax, %rdi
  93 00b4 E8000000 		call	_ZN8onefieldD1Ev
  93      00
  94 00b9 4889D8   		movq	%rbx, %rax
  95 00bc 4889C7   		movq	%rax, %rdi
  96              	.LEHB5:
  97 00bf E8000000 		call	_Unwind_Resume
  97      00
  98              	.LEHE5:
  99              	.L8:
 100              	.LBE2:
  26:basic-constructor.cpp **** }
 101              		.loc 1 26 0
 102 00c4 4883C420 		addq	$32, %rsp
 103 00c8 5B       		popq	%rbx
 104 00c9 415C     		popq	%r12
 105 00cb 5D       		popq	%rbp
 106              		.cfi_def_cfa 7, 8
 107 00cc C3       		ret
 108              		.cfi_endproc
 109              	.LFE0:
 110              		.globl	__gxx_personality_v0
 111              		.section	.gcc_except_table,"a",@progbits
 112              	.LLSDA0:
 113 0000 FF       		.byte	0xff
 114 0001 FF       		.byte	0xff
 115 0002 01       		.byte	0x1
 116 0003 1D       		.uleb128 .LLSDACSE0-.LLSDACSB0
 117              	.LLSDACSB0:
 118 0004 1E       		.uleb128 .LEHB0-.LFB0
 119 0005 05       		.uleb128 .LEHE0-.LEHB0
 120 0006 00       		.uleb128 0
 121 0007 00       		.uleb128 0
 122 0008 39       		.uleb128 .LEHB1-.LFB0
 123 0009 05       		.uleb128 .LEHE1-.LEHB1
 124 000a AA01     		.uleb128 .L6-.LFB0
 125 000c 00       		.uleb128 0
 126 000d 49       		.uleb128 .LEHB2-.LFB0
 127 000e 05       		.uleb128 .LEHE2-.LEHB2
 128 000f 9A01     		.uleb128 .L7-.LFB0
GAS LISTING /tmp/cc5rnT6g.s 			page 4


 129 0011 00       		.uleb128 0
 130 0012 6F       		.uleb128 .LEHB3-.LFB0
 131 0013 05       		.uleb128 .LEHE3-.LEHB3
 132 0014 AA01     		.uleb128 .L6-.LFB0
 133 0016 00       		.uleb128 0
 134 0017 9101     		.uleb128 .LEHB4-.LFB0
 135 0019 05       		.uleb128 .LEHE4-.LEHB4
 136 001a 00       		.uleb128 0
 137 001b 00       		.uleb128 0
 138 001c BF01     		.uleb128 .LEHB5-.LFB0
 139 001e 05       		.uleb128 .LEHE5-.LEHB5
 140 001f 00       		.uleb128 0
 141 0020 00       		.uleb128 0
 142              	.LLSDACSE0:
 143              		.text
 145 00cd 90       		.align 2
 146              		.globl	_ZN8onefield8setFieldEi
 148              	_ZN8onefield8setFieldEi:
 149              	.LFB1:
  27:basic-constructor.cpp **** 
  28:basic-constructor.cpp **** 
  29:basic-constructor.cpp **** void onefield::setField(int f) {
 150              		.loc 1 29 0
 151              		.cfi_startproc
 152 00ce 55       		pushq	%rbp
 153              		.cfi_def_cfa_offset 16
 154              		.cfi_offset 6, -16
 155 00cf 4889E5   		movq	%rsp, %rbp
 156              		.cfi_def_cfa_register 6
 157 00d2 48897DF8 		movq	%rdi, -8(%rbp)
 158 00d6 8975F4   		movl	%esi, -12(%rbp)
  30:basic-constructor.cpp ****     this->field = f;
 159              		.loc 1 30 0
 160 00d9 488B45F8 		movq	-8(%rbp), %rax
 161 00dd 8B55F4   		movl	-12(%rbp), %edx
 162 00e0 8910     		movl	%edx, (%rax)
  31:basic-constructor.cpp **** }
 163              		.loc 1 31 0
 164 00e2 5D       		popq	%rbp
 165              		.cfi_def_cfa 7, 8
 166 00e3 C3       		ret
 167              		.cfi_endproc
 168              	.LFE1:
 170              		.align 2
 171              		.globl	_ZNK8onefield8getFieldEv
 173              	_ZNK8onefield8getFieldEv:
 174              	.LFB2:
  32:basic-constructor.cpp **** int onefield::getField() const {
 175              		.loc 1 32 0
 176              		.cfi_startproc
 177 00e4 55       		pushq	%rbp
 178              		.cfi_def_cfa_offset 16
 179              		.cfi_offset 6, -16
 180 00e5 4889E5   		movq	%rsp, %rbp
 181              		.cfi_def_cfa_register 6
 182 00e8 48897DF8 		movq	%rdi, -8(%rbp)
  33:basic-constructor.cpp ****     return this->field;
GAS LISTING /tmp/cc5rnT6g.s 			page 5


 183              		.loc 1 33 0
 184 00ec 488B45F8 		movq	-8(%rbp), %rax
 185 00f0 8B00     		movl	(%rax), %eax
  34:basic-constructor.cpp **** }
 186              		.loc 1 34 0
 187 00f2 5D       		popq	%rbp
 188              		.cfi_def_cfa 7, 8
 189 00f3 C3       		ret
 190              		.cfi_endproc
 191              	.LFE2:
 193              		.section	.rodata
 194              		.align 8
 195              	.LC0:
 196 0000 696E6974 		.string	"initial value of field was %d.\n"
 196      69616C20 
 196      76616C75 
 196      65206F66 
 196      20666965 
 197              		.text
 198              		.align 2
 199              		.globl	_ZN8onefieldC2Ei
 201              	_ZN8onefieldC2Ei:
 202              	.LFB4:
  35:basic-constructor.cpp **** 
  36:basic-constructor.cpp **** onefield::onefield(int f) {
 203              		.loc 1 36 0
 204              		.cfi_startproc
 205 00f4 55       		pushq	%rbp
 206              		.cfi_def_cfa_offset 16
 207              		.cfi_offset 6, -16
 208 00f5 4889E5   		movq	%rsp, %rbp
 209              		.cfi_def_cfa_register 6
 210 00f8 4883EC10 		subq	$16, %rsp
 211 00fc 48897DF8 		movq	%rdi, -8(%rbp)
 212 0100 8975F4   		movl	%esi, -12(%rbp)
 213              	.LBB3:
  37:basic-constructor.cpp ****     field = f;
 214              		.loc 1 37 0
 215 0103 488B45F8 		movq	-8(%rbp), %rax
 216 0107 8B55F4   		movl	-12(%rbp), %edx
 217 010a 8910     		movl	%edx, (%rax)
  38:basic-constructor.cpp ****     printf("initial value of field was %d.\n", field);
 218              		.loc 1 38 0
 219 010c 488B45F8 		movq	-8(%rbp), %rax
 220 0110 8B00     		movl	(%rax), %eax
 221 0112 89C6     		movl	%eax, %esi
 222 0114 BF000000 		movl	$.LC0, %edi
 222      00
 223 0119 B8000000 		movl	$0, %eax
 223      00
 224 011e E8000000 		call	printf
 224      00
 225              	.LBE3:
  39:basic-constructor.cpp **** }
 226              		.loc 1 39 0
 227 0123 C9       		leave
 228              		.cfi_def_cfa 7, 8
GAS LISTING /tmp/cc5rnT6g.s 			page 6


 229 0124 C3       		ret
 230              		.cfi_endproc
 231              	.LFE4:
 233              		.globl	_ZN8onefieldC1Ei
 234              		.set	_ZN8onefieldC1Ei,_ZN8onefieldC2Ei
 235              		.section	.rodata
 236              	.LC1:
 237 0020 4C617374 		.string	"Last value of field was %d.\n"
 237      2076616C 
 237      7565206F 
 237      66206669 
 237      656C6420 
 238              		.text
 239 0125 90       		.align 2
 240              		.globl	_ZN8onefieldD2Ev
 242              	_ZN8onefieldD2Ev:
 243              	.LFB7:
  40:basic-constructor.cpp **** 
  41:basic-constructor.cpp **** onefield::~onefield() {
 244              		.loc 1 41 0
 245              		.cfi_startproc
 246 0126 55       		pushq	%rbp
 247              		.cfi_def_cfa_offset 16
 248              		.cfi_offset 6, -16
 249 0127 4889E5   		movq	%rsp, %rbp
 250              		.cfi_def_cfa_register 6
 251 012a 4883EC10 		subq	$16, %rsp
 252 012e 48897DF8 		movq	%rdi, -8(%rbp)
 253              	.LBB4:
  42:basic-constructor.cpp ****     printf("Last value of field was %d.\n", field);
 254              		.loc 1 42 0
 255 0132 488B45F8 		movq	-8(%rbp), %rax
 256 0136 8B00     		movl	(%rax), %eax
 257 0138 89C6     		movl	%eax, %esi
 258 013a BF000000 		movl	$.LC1, %edi
 258      00
 259 013f B8000000 		movl	$0, %eax
 259      00
 260 0144 E8000000 		call	printf
 260      00
 261              	.LBE4:
  43:basic-constructor.cpp **** }
 262              		.loc 1 43 0
 263 0149 C9       		leave
 264              		.cfi_def_cfa 7, 8
 265 014a C3       		ret
 266              		.cfi_endproc
 267              	.LFE7:
 269              		.globl	_ZN8onefieldD1Ev
 270              		.set	_ZN8onefieldD1Ev,_ZN8onefieldD2Ev
 271              	.Letext0:
GAS LISTING /tmp/cc5rnT6g.s 			page 7


DEFINED SYMBOLS
                            *ABS*:0000000000000000 basic-constructor.cpp
     /tmp/cc5rnT6g.s:6      .text:0000000000000000 main
     /tmp/cc5rnT6g.s:201    .text:00000000000000f4 _ZN8onefieldC1Ei
     /tmp/cc5rnT6g.s:148    .text:00000000000000ce _ZN8onefield8setFieldEi
     /tmp/cc5rnT6g.s:242    .text:0000000000000126 _ZN8onefieldD1Ev
     /tmp/cc5rnT6g.s:173    .text:00000000000000e4 _ZNK8onefield8getFieldEv
     /tmp/cc5rnT6g.s:201    .text:00000000000000f4 _ZN8onefieldC2Ei
     /tmp/cc5rnT6g.s:242    .text:0000000000000126 _ZN8onefieldD2Ev

UNDEFINED SYMBOLS
__gxx_personality_v0
_Znwm
_ZdlPv
_Unwind_Resume
printf
