GAS LISTING /tmp/cc0T43e8.s 			page 1


   1              		.file	"complex-multiple.cpp"
   2              		.text
   3              	.Ltext0:
   4              		.align 2
   5              		.globl	_ZNK6baseA28getDataAEv
   7              	_ZNK6baseA28getDataAEv:
   8              	.LFB20:
   9              		.file 1 "complex-multiple.cpp"
   1:complex-multiple.cpp **** #include <stdio.h>
   2:complex-multiple.cpp **** 
   3:complex-multiple.cpp **** class baseA2 {
   4:complex-multiple.cpp ****     int dataA;
   5:complex-multiple.cpp ****   public:
   6:complex-multiple.cpp ****     void setDataA(int a);
   7:complex-multiple.cpp ****     virtual int getDataA() const;
   8:complex-multiple.cpp **** };
   9:complex-multiple.cpp **** 
  10:complex-multiple.cpp **** class baseB2 {
  11:complex-multiple.cpp ****     int dataB;
  12:complex-multiple.cpp ****   public:
  13:complex-multiple.cpp ****     void setDataB(int b);
  14:complex-multiple.cpp ****     virtual int getDataB() const;
  15:complex-multiple.cpp **** };
  16:complex-multiple.cpp **** 
  17:complex-multiple.cpp **** class subBoth2 : public baseA2, public baseB2 {
  18:complex-multiple.cpp ****   public:
  19:complex-multiple.cpp ****     virtual int getSum() const;
  20:complex-multiple.cpp ****     // Overrise get data methods for fun.
  21:complex-multiple.cpp ****     virtual int getDataA() const;
  22:complex-multiple.cpp ****     virtual int getDataB() const;
  23:complex-multiple.cpp **** };
  24:complex-multiple.cpp **** 
  25:complex-multiple.cpp **** void baseA2::setDataA(int a) {
  26:complex-multiple.cpp ****     dataA = a;
  27:complex-multiple.cpp **** }
  28:complex-multiple.cpp **** int baseA2::getDataA() const {
  10              		.loc 1 28 0
  11              		.cfi_startproc
  12              	.LVL0:
  29:complex-multiple.cpp ****     return dataA;
  13              		.loc 1 29 0
  14 0000 8B4708   		movl	8(%rdi), %eax
  30:complex-multiple.cpp **** }
  15              		.loc 1 30 0
  16 0003 C3       		ret
  17              		.cfi_endproc
  18              	.LFE20:
  20              		.align 2
  21              		.globl	_ZNK6baseB28getDataBEv
  23              	_ZNK6baseB28getDataBEv:
  24              	.LFB22:
  31:complex-multiple.cpp **** 
  32:complex-multiple.cpp **** void baseB2::setDataB(int b) {
  33:complex-multiple.cpp ****     dataB = b;
  34:complex-multiple.cpp **** }
  35:complex-multiple.cpp **** int baseB2::getDataB() const {
  25              		.loc 1 35 0
GAS LISTING /tmp/cc0T43e8.s 			page 2


  26              		.cfi_startproc
  27              	.LVL1:
  36:complex-multiple.cpp ****     return dataB;
  28              		.loc 1 36 0
  29 0004 8B4708   		movl	8(%rdi), %eax
  37:complex-multiple.cpp **** }
  30              		.loc 1 37 0
  31 0007 C3       		ret
  32              		.cfi_endproc
  33              	.LFE22:
  35              		.align 2
  36              		.globl	_ZNK8subBoth26getSumEv
  38              	_ZNK8subBoth26getSumEv:
  39              	.LFB23:
  38:complex-multiple.cpp **** 
  39:complex-multiple.cpp **** int subBoth2::getSum() const {
  40              		.loc 1 39 0
  41              		.cfi_startproc
  42              	.LVL2:
  43 0008 55       		pushq	%rbp
  44              		.cfi_def_cfa_offset 16
  45              		.cfi_offset 6, -16
  46 0009 53       		pushq	%rbx
  47              		.cfi_def_cfa_offset 24
  48              		.cfi_offset 3, -24
  49 000a 4883EC08 		subq	$8, %rsp
  50              		.cfi_def_cfa_offset 32
  51 000e 4889FB   		movq	%rdi, %rbx
  52              	.LVL3:
  53              	.LBB9:
  40:complex-multiple.cpp ****     int total = 0;
  41:complex-multiple.cpp ****     total += getDataA();
  54              		.loc 1 41 0
  55 0011 488B07   		movq	(%rdi), %rax
  56 0014 FF10     		call	*(%rax)
  57              	.LVL4:
  58 0016 89C5     		movl	%eax, %ebp
  59              	.LVL5:
  42:complex-multiple.cpp ****     total += getDataB();
  60              		.loc 1 42 0
  61 0018 488B03   		movq	(%rbx), %rax
  62              	.LVL6:
  63 001b 4889DF   		movq	%rbx, %rdi
  64 001e FF5010   		call	*16(%rax)
  65              	.LVL7:
  66 0021 01E8     		addl	%ebp, %eax
  67              	.LVL8:
  68              	.LBE9:
  43:complex-multiple.cpp ****     return total;
  44:complex-multiple.cpp **** }
  69              		.loc 1 44 0
  70 0023 4883C408 		addq	$8, %rsp
  71              		.cfi_def_cfa_offset 24
  72 0027 5B       		popq	%rbx
  73              		.cfi_def_cfa_offset 16
  74              	.LVL9:
  75 0028 5D       		popq	%rbp
GAS LISTING /tmp/cc0T43e8.s 			page 3


  76              		.cfi_def_cfa_offset 8
  77 0029 C3       		ret
  78              		.cfi_endproc
  79              	.LFE23:
  81              		.section	.rodata.str1.1,"aMS",@progbits,1
  82              	.LC0:
  83 0000 63616C6C 		.string	"calling getDataA()\n"
  83      696E6720 
  83      67657444 
  83      61746141 
  83      28290A00 
  84              		.text
  85              		.align 2
  86              		.globl	_ZNK8subBoth28getDataAEv
  88              	_ZNK8subBoth28getDataAEv:
  89              	.LFB24:
  45:complex-multiple.cpp **** 
  46:complex-multiple.cpp **** int subBoth2::getDataA() const {
  90              		.loc 1 46 0
  91              		.cfi_startproc
  92              	.LVL10:
  93 002a 53       		pushq	%rbx
  94              		.cfi_def_cfa_offset 16
  95              		.cfi_offset 3, -16
  96 002b 4889FB   		movq	%rdi, %rbx
  97              	.LVL11:
  98              	.LBB10:
  99              	.LBB11:
 100              		.file 2 "/usr/include/x86_64-linux-gnu/bits/stdio2.h"
   1:/usr/include/x86_64-linux-gnu/bits/stdio2.h **** /* Checking macros for stdio functions.
   2:/usr/include/x86_64-linux-gnu/bits/stdio2.h ****    Copyright (C) 2004-2014 Free Software Foundation, Inc.
   3:/usr/include/x86_64-linux-gnu/bits/stdio2.h ****    This file is part of the GNU C Library.
   4:/usr/include/x86_64-linux-gnu/bits/stdio2.h **** 
   5:/usr/include/x86_64-linux-gnu/bits/stdio2.h ****    The GNU C Library is free software; you can redistribute it and/or
   6:/usr/include/x86_64-linux-gnu/bits/stdio2.h ****    modify it under the terms of the GNU Lesser General Public
   7:/usr/include/x86_64-linux-gnu/bits/stdio2.h ****    License as published by the Free Software Foundation; either
   8:/usr/include/x86_64-linux-gnu/bits/stdio2.h ****    version 2.1 of the License, or (at your option) any later version.
   9:/usr/include/x86_64-linux-gnu/bits/stdio2.h **** 
  10:/usr/include/x86_64-linux-gnu/bits/stdio2.h ****    The GNU C Library is distributed in the hope that it will be useful,
  11:/usr/include/x86_64-linux-gnu/bits/stdio2.h ****    but WITHOUT ANY WARRANTY; without even the implied warranty of
  12:/usr/include/x86_64-linux-gnu/bits/stdio2.h ****    MERCHANTABILITY or FITNESS FOR A PARTICULAR PURPOSE.  See the GNU
  13:/usr/include/x86_64-linux-gnu/bits/stdio2.h ****    Lesser General Public License for more details.
  14:/usr/include/x86_64-linux-gnu/bits/stdio2.h **** 
  15:/usr/include/x86_64-linux-gnu/bits/stdio2.h ****    You should have received a copy of the GNU Lesser General Public
  16:/usr/include/x86_64-linux-gnu/bits/stdio2.h ****    License along with the GNU C Library; if not, see
  17:/usr/include/x86_64-linux-gnu/bits/stdio2.h ****    <http://www.gnu.org/licenses/>.  */
  18:/usr/include/x86_64-linux-gnu/bits/stdio2.h **** 
  19:/usr/include/x86_64-linux-gnu/bits/stdio2.h **** #ifndef _STDIO_H
  20:/usr/include/x86_64-linux-gnu/bits/stdio2.h **** # error "Never include <bits/stdio2.h> directly; use <stdio.h> instead."
  21:/usr/include/x86_64-linux-gnu/bits/stdio2.h **** #endif
  22:/usr/include/x86_64-linux-gnu/bits/stdio2.h **** 
  23:/usr/include/x86_64-linux-gnu/bits/stdio2.h **** extern int __sprintf_chk (char *__restrict __s, int __flag, size_t __slen,
  24:/usr/include/x86_64-linux-gnu/bits/stdio2.h **** 			  const char *__restrict __format, ...) __THROW;
  25:/usr/include/x86_64-linux-gnu/bits/stdio2.h **** extern int __vsprintf_chk (char *__restrict __s, int __flag, size_t __slen,
  26:/usr/include/x86_64-linux-gnu/bits/stdio2.h **** 			   const char *__restrict __format,
  27:/usr/include/x86_64-linux-gnu/bits/stdio2.h **** 			   _G_va_list __ap) __THROW;
  28:/usr/include/x86_64-linux-gnu/bits/stdio2.h **** 
GAS LISTING /tmp/cc0T43e8.s 			page 4


  29:/usr/include/x86_64-linux-gnu/bits/stdio2.h **** #ifdef __va_arg_pack
  30:/usr/include/x86_64-linux-gnu/bits/stdio2.h **** __fortify_function int
  31:/usr/include/x86_64-linux-gnu/bits/stdio2.h **** __NTH (sprintf (char *__restrict __s, const char *__restrict __fmt, ...))
  32:/usr/include/x86_64-linux-gnu/bits/stdio2.h **** {
  33:/usr/include/x86_64-linux-gnu/bits/stdio2.h ****   return __builtin___sprintf_chk (__s, __USE_FORTIFY_LEVEL - 1,
  34:/usr/include/x86_64-linux-gnu/bits/stdio2.h **** 				  __bos (__s), __fmt, __va_arg_pack ());
  35:/usr/include/x86_64-linux-gnu/bits/stdio2.h **** }
  36:/usr/include/x86_64-linux-gnu/bits/stdio2.h **** #elif !defined __cplusplus
  37:/usr/include/x86_64-linux-gnu/bits/stdio2.h **** # define sprintf(str, ...) \
  38:/usr/include/x86_64-linux-gnu/bits/stdio2.h ****   __builtin___sprintf_chk (str, __USE_FORTIFY_LEVEL - 1, __bos (str), \
  39:/usr/include/x86_64-linux-gnu/bits/stdio2.h **** 			   __VA_ARGS__)
  40:/usr/include/x86_64-linux-gnu/bits/stdio2.h **** #endif
  41:/usr/include/x86_64-linux-gnu/bits/stdio2.h **** 
  42:/usr/include/x86_64-linux-gnu/bits/stdio2.h **** __fortify_function int
  43:/usr/include/x86_64-linux-gnu/bits/stdio2.h **** __NTH (vsprintf (char *__restrict __s, const char *__restrict __fmt,
  44:/usr/include/x86_64-linux-gnu/bits/stdio2.h **** 		 _G_va_list __ap))
  45:/usr/include/x86_64-linux-gnu/bits/stdio2.h **** {
  46:/usr/include/x86_64-linux-gnu/bits/stdio2.h ****   return __builtin___vsprintf_chk (__s, __USE_FORTIFY_LEVEL - 1,
  47:/usr/include/x86_64-linux-gnu/bits/stdio2.h **** 				   __bos (__s), __fmt, __ap);
  48:/usr/include/x86_64-linux-gnu/bits/stdio2.h **** }
  49:/usr/include/x86_64-linux-gnu/bits/stdio2.h **** 
  50:/usr/include/x86_64-linux-gnu/bits/stdio2.h **** #if defined __USE_BSD || defined __USE_ISOC99 || defined __USE_UNIX98
  51:/usr/include/x86_64-linux-gnu/bits/stdio2.h **** 
  52:/usr/include/x86_64-linux-gnu/bits/stdio2.h **** extern int __snprintf_chk (char *__restrict __s, size_t __n, int __flag,
  53:/usr/include/x86_64-linux-gnu/bits/stdio2.h **** 			   size_t __slen, const char *__restrict __format,
  54:/usr/include/x86_64-linux-gnu/bits/stdio2.h **** 			   ...) __THROW;
  55:/usr/include/x86_64-linux-gnu/bits/stdio2.h **** extern int __vsnprintf_chk (char *__restrict __s, size_t __n, int __flag,
  56:/usr/include/x86_64-linux-gnu/bits/stdio2.h **** 			    size_t __slen, const char *__restrict __format,
  57:/usr/include/x86_64-linux-gnu/bits/stdio2.h **** 			    _G_va_list __ap) __THROW;
  58:/usr/include/x86_64-linux-gnu/bits/stdio2.h **** 
  59:/usr/include/x86_64-linux-gnu/bits/stdio2.h **** # ifdef __va_arg_pack
  60:/usr/include/x86_64-linux-gnu/bits/stdio2.h **** __fortify_function int
  61:/usr/include/x86_64-linux-gnu/bits/stdio2.h **** __NTH (snprintf (char *__restrict __s, size_t __n,
  62:/usr/include/x86_64-linux-gnu/bits/stdio2.h **** 		 const char *__restrict __fmt, ...))
  63:/usr/include/x86_64-linux-gnu/bits/stdio2.h **** {
  64:/usr/include/x86_64-linux-gnu/bits/stdio2.h ****   return __builtin___snprintf_chk (__s, __n, __USE_FORTIFY_LEVEL - 1,
  65:/usr/include/x86_64-linux-gnu/bits/stdio2.h **** 				   __bos (__s), __fmt, __va_arg_pack ());
  66:/usr/include/x86_64-linux-gnu/bits/stdio2.h **** }
  67:/usr/include/x86_64-linux-gnu/bits/stdio2.h **** # elif !defined __cplusplus
  68:/usr/include/x86_64-linux-gnu/bits/stdio2.h **** #  define snprintf(str, len, ...) \
  69:/usr/include/x86_64-linux-gnu/bits/stdio2.h ****   __builtin___snprintf_chk (str, len, __USE_FORTIFY_LEVEL - 1, __bos (str), \
  70:/usr/include/x86_64-linux-gnu/bits/stdio2.h **** 			    __VA_ARGS__)
  71:/usr/include/x86_64-linux-gnu/bits/stdio2.h **** # endif
  72:/usr/include/x86_64-linux-gnu/bits/stdio2.h **** 
  73:/usr/include/x86_64-linux-gnu/bits/stdio2.h **** __fortify_function int
  74:/usr/include/x86_64-linux-gnu/bits/stdio2.h **** __NTH (vsnprintf (char *__restrict __s, size_t __n,
  75:/usr/include/x86_64-linux-gnu/bits/stdio2.h **** 		  const char *__restrict __fmt, _G_va_list __ap))
  76:/usr/include/x86_64-linux-gnu/bits/stdio2.h **** {
  77:/usr/include/x86_64-linux-gnu/bits/stdio2.h ****   return __builtin___vsnprintf_chk (__s, __n, __USE_FORTIFY_LEVEL - 1,
  78:/usr/include/x86_64-linux-gnu/bits/stdio2.h **** 				    __bos (__s), __fmt, __ap);
  79:/usr/include/x86_64-linux-gnu/bits/stdio2.h **** }
  80:/usr/include/x86_64-linux-gnu/bits/stdio2.h **** 
  81:/usr/include/x86_64-linux-gnu/bits/stdio2.h **** #endif
  82:/usr/include/x86_64-linux-gnu/bits/stdio2.h **** 
  83:/usr/include/x86_64-linux-gnu/bits/stdio2.h **** #if __USE_FORTIFY_LEVEL > 1
  84:/usr/include/x86_64-linux-gnu/bits/stdio2.h **** 
  85:/usr/include/x86_64-linux-gnu/bits/stdio2.h **** extern int __fprintf_chk (FILE *__restrict __stream, int __flag,
GAS LISTING /tmp/cc0T43e8.s 			page 5


  86:/usr/include/x86_64-linux-gnu/bits/stdio2.h **** 			  const char *__restrict __format, ...);
  87:/usr/include/x86_64-linux-gnu/bits/stdio2.h **** extern int __printf_chk (int __flag, const char *__restrict __format, ...);
  88:/usr/include/x86_64-linux-gnu/bits/stdio2.h **** extern int __vfprintf_chk (FILE *__restrict __stream, int __flag,
  89:/usr/include/x86_64-linux-gnu/bits/stdio2.h **** 			   const char *__restrict __format, _G_va_list __ap);
  90:/usr/include/x86_64-linux-gnu/bits/stdio2.h **** extern int __vprintf_chk (int __flag, const char *__restrict __format,
  91:/usr/include/x86_64-linux-gnu/bits/stdio2.h **** 			  _G_va_list __ap);
  92:/usr/include/x86_64-linux-gnu/bits/stdio2.h **** 
  93:/usr/include/x86_64-linux-gnu/bits/stdio2.h **** # ifdef __va_arg_pack
  94:/usr/include/x86_64-linux-gnu/bits/stdio2.h **** __fortify_function int
  95:/usr/include/x86_64-linux-gnu/bits/stdio2.h **** fprintf (FILE *__restrict __stream, const char *__restrict __fmt, ...)
  96:/usr/include/x86_64-linux-gnu/bits/stdio2.h **** {
  97:/usr/include/x86_64-linux-gnu/bits/stdio2.h ****   return __fprintf_chk (__stream, __USE_FORTIFY_LEVEL - 1, __fmt,
  98:/usr/include/x86_64-linux-gnu/bits/stdio2.h **** 			__va_arg_pack ());
  99:/usr/include/x86_64-linux-gnu/bits/stdio2.h **** }
 100:/usr/include/x86_64-linux-gnu/bits/stdio2.h **** 
 101:/usr/include/x86_64-linux-gnu/bits/stdio2.h **** __fortify_function int
 102:/usr/include/x86_64-linux-gnu/bits/stdio2.h **** printf (const char *__restrict __fmt, ...)
 103:/usr/include/x86_64-linux-gnu/bits/stdio2.h **** {
 104:/usr/include/x86_64-linux-gnu/bits/stdio2.h ****   return __printf_chk (__USE_FORTIFY_LEVEL - 1, __fmt, __va_arg_pack ());
 101              		.loc 2 104 0
 102 002e BE000000 		movl	$.LC0, %esi
 102      00
 103 0033 BF010000 		movl	$1, %edi
 103      00
 104              	.LVL12:
 105 0038 B8000000 		movl	$0, %eax
 105      00
 106 003d E8000000 		call	__printf_chk
 106      00
 107              	.LVL13:
 108              	.LBE11:
 109              	.LBE10:
  47:complex-multiple.cpp ****     printf("calling getDataA()\n");
  48:complex-multiple.cpp ****     return baseA2::getDataA();
 110              		.loc 1 48 0
 111 0042 4889DF   		movq	%rbx, %rdi
 112 0045 E8000000 		call	_ZNK6baseA28getDataAEv
 112      00
 113              	.LVL14:
  49:complex-multiple.cpp **** }
 114              		.loc 1 49 0
 115 004a 5B       		popq	%rbx
 116              		.cfi_def_cfa_offset 8
 117              	.LVL15:
 118 004b C3       		ret
 119              		.cfi_endproc
 120              	.LFE24:
 122              		.section	.rodata.str1.1
 123              	.LC1:
 124 0014 63616C6C 		.string	"calling getDataB()\n"
 124      696E6720 
 124      67657444 
 124      61746142 
 124      28290A00 
 125              		.text
 126              		.align 2
 127              		.globl	_ZNK8subBoth28getDataBEv
GAS LISTING /tmp/cc0T43e8.s 			page 6


 129              	_ZNK8subBoth28getDataBEv:
 130              	.LFB25:
  50:complex-multiple.cpp **** 
  51:complex-multiple.cpp **** int subBoth2::getDataB() const {
 131              		.loc 1 51 0
 132              		.cfi_startproc
 133              	.LVL16:
 134 004c 53       		pushq	%rbx
 135              		.cfi_def_cfa_offset 16
 136              		.cfi_offset 3, -16
 137 004d 4889FB   		movq	%rdi, %rbx
 138              	.LVL17:
 139              	.LBB12:
 140              	.LBB13:
 141              		.loc 2 104 0
 142 0050 BE000000 		movl	$.LC1, %esi
 142      00
 143 0055 BF010000 		movl	$1, %edi
 143      00
 144              	.LVL18:
 145 005a B8000000 		movl	$0, %eax
 145      00
 146 005f E8000000 		call	__printf_chk
 146      00
 147              	.LVL19:
 148              	.LBE13:
 149              	.LBE12:
  52:complex-multiple.cpp ****     printf("calling getDataB()\n");
  53:complex-multiple.cpp ****     return baseB2::getDataB();
 150              		.loc 1 53 0
 151 0064 488D7B10 		leaq	16(%rbx), %rdi
 152 0068 E8000000 		call	_ZNK6baseB28getDataBEv
 152      00
 153              	.LVL20:
  54:complex-multiple.cpp **** }
 154              		.loc 1 54 0
 155 006d 5B       		popq	%rbx
 156              		.cfi_def_cfa_offset 8
 157              	.LVL21:
 158 006e C3       		ret
 159              		.cfi_endproc
 160              	.LFE25:
 162              		.set	.LTHUNK0,_ZNK8subBoth28getDataBEv
 163              		.globl	_ZThn16_NK8subBoth28getDataBEv
 165              	_ZThn16_NK8subBoth28getDataBEv:
 166              	.LFB36:
  22:complex-multiple.cpp **** };
 167              		.loc 1 22 0
 168              		.cfi_startproc
 169 006f 4883EF10 		subq	$16, %rdi
 170 0073 EBD7     		jmp	.LTHUNK0
 171              		.cfi_endproc
 172              	.LFE36:
 174 0075 90       		.align 2
 175              		.globl	_ZN6baseA28setDataAEi
 177              	_ZN6baseA28setDataAEi:
 178              	.LFB19:
GAS LISTING /tmp/cc0T43e8.s 			page 7


  25:complex-multiple.cpp ****     dataA = a;
 179              		.loc 1 25 0
 180              		.cfi_startproc
 181              	.LVL22:
  26:complex-multiple.cpp **** }
 182              		.loc 1 26 0
 183 0076 897708   		movl	%esi, 8(%rdi)
 184 0079 C3       		ret
 185              		.cfi_endproc
 186              	.LFE19:
 188              		.align 2
 189              		.globl	_ZN6baseB28setDataBEi
 191              	_ZN6baseB28setDataBEi:
 192              	.LFB21:
  32:complex-multiple.cpp ****     dataB = b;
 193              		.loc 1 32 0
 194              		.cfi_startproc
 195              	.LVL23:
  33:complex-multiple.cpp **** }
 196              		.loc 1 33 0
 197 007a 897708   		movl	%esi, 8(%rdi)
 198 007d C3       		ret
 199              		.cfi_endproc
 200              	.LFE21:
 202              		.section	.text._ZN6baseA2C2Ev,"axG",@progbits,_ZN6baseA2C5Ev,comdat
 203              		.align 2
 204              		.weak	_ZN6baseA2C2Ev
 206              	_ZN6baseA2C2Ev:
 207              	.LFB29:
   3:complex-multiple.cpp ****   public:
 208              		.loc 1 3 0
 209              		.cfi_startproc
 210              	.LVL24:
 211              	.LBB14:
   3:complex-multiple.cpp ****   public:
 212              		.loc 1 3 0
 213 0000 48C70700 		movq	$_ZTV6baseA2+16, (%rdi)
 213      000000
 214 0007 C3       		ret
 215              	.LBE14:
 216              		.cfi_endproc
 217              	.LFE29:
 219              		.weak	_ZN6baseA2C1Ev
 220              		.set	_ZN6baseA2C1Ev,_ZN6baseA2C2Ev
 221              		.section	.text._ZN6baseB2C2Ev,"axG",@progbits,_ZN6baseB2C5Ev,comdat
 222              		.align 2
 223              		.weak	_ZN6baseB2C2Ev
 225              	_ZN6baseB2C2Ev:
 226              	.LFB32:
  10:complex-multiple.cpp ****     int dataB;
 227              		.loc 1 10 0
 228              		.cfi_startproc
 229              	.LVL25:
 230              	.LBB15:
  10:complex-multiple.cpp ****     int dataB;
 231              		.loc 1 10 0
 232 0000 48C70700 		movq	$_ZTV6baseB2+16, (%rdi)
GAS LISTING /tmp/cc0T43e8.s 			page 8


 232      000000
 233 0007 C3       		ret
 234              	.LBE15:
 235              		.cfi_endproc
 236              	.LFE32:
 238              		.weak	_ZN6baseB2C1Ev
 239              		.set	_ZN6baseB2C1Ev,_ZN6baseB2C2Ev
 240              		.section	.text._ZN8subBoth2C2Ev,"axG",@progbits,_ZN8subBoth2C5Ev,comdat
 241              		.align 2
 242              		.weak	_ZN8subBoth2C2Ev
 244              	_ZN8subBoth2C2Ev:
 245              	.LFB34:
  17:complex-multiple.cpp ****   public:
 246              		.loc 1 17 0
 247              		.cfi_startproc
 248              	.LVL26:
 249 0000 53       		pushq	%rbx
 250              		.cfi_def_cfa_offset 16
 251              		.cfi_offset 3, -16
 252 0001 4889FB   		movq	%rdi, %rbx
 253              	.LBB16:
  17:complex-multiple.cpp ****   public:
 254              		.loc 1 17 0
 255 0004 E8000000 		call	_ZN6baseA2C2Ev
 255      00
 256              	.LVL27:
 257 0009 488D7B10 		leaq	16(%rbx), %rdi
 258 000d E8000000 		call	_ZN6baseB2C2Ev
 258      00
 259              	.LVL28:
 260 0012 48C70300 		movq	$_ZTV8subBoth2+16, (%rbx)
 260      000000
 261 0019 48C74310 		movq	$_ZTV8subBoth2+56, 16(%rbx)
 261      00000000 
 262              	.LBE16:
 263 0021 5B       		popq	%rbx
 264              		.cfi_def_cfa_offset 8
 265              	.LVL29:
 266 0022 C3       		ret
 267              		.cfi_endproc
 268              	.LFE34:
 270              		.weak	_ZN8subBoth2C1Ev
 271              		.set	_ZN8subBoth2C1Ev,_ZN8subBoth2C2Ev
 272              		.section	.rodata.str1.1
 273              	.LC2:
 274 0028 73622D3E 		.string	"sb->getSum()=%d"
 274      67657453 
 274      756D2829 
 274      3D256400 
 275              		.text
 276              		.globl	_Z15complexMultipleiPPKc
 278              	_Z15complexMultipleiPPKc:
 279              	.LFB26:
  55:complex-multiple.cpp **** 
  56:complex-multiple.cpp **** 
  57:complex-multiple.cpp **** int complexMultiple(int argc, const char **argv) {
 280              		.loc 1 57 0
GAS LISTING /tmp/cc0T43e8.s 			page 9


 281              		.cfi_startproc
 282              	.LVL30:
 283 007e 55       		pushq	%rbp
 284              		.cfi_def_cfa_offset 16
 285              		.cfi_offset 6, -16
 286 007f 53       		pushq	%rbx
 287              		.cfi_def_cfa_offset 24
 288              		.cfi_offset 3, -24
 289 0080 4883EC08 		subq	$8, %rsp
 290              		.cfi_def_cfa_offset 32
 291              	.LBB17:
  58:complex-multiple.cpp **** 
  59:complex-multiple.cpp ****     subBoth2 *sb = new subBoth2;
 292              		.loc 1 59 0
 293 0084 BF200000 		movl	$32, %edi
 293      00
 294              	.LVL31:
 295 0089 E8000000 		call	_Znwm
 295      00
 296              	.LVL32:
 297 008e 4889C3   		movq	%rax, %rbx
 298 0091 4889C7   		movq	%rax, %rdi
 299 0094 E8000000 		call	_ZN8subBoth2C1Ev
 299      00
 300              	.LVL33:
  60:complex-multiple.cpp **** 
  61:complex-multiple.cpp ****     sb->getSum();
 301              		.loc 1 61 0
 302 0099 488B03   		movq	(%rbx), %rax
 303 009c 4889DF   		movq	%rbx, %rdi
 304 009f FF5008   		call	*8(%rax)
 305              	.LVL34:
  62:complex-multiple.cpp **** 
  63:complex-multiple.cpp ****     baseA2 *ba = sb;
  64:complex-multiple.cpp **** 
  65:complex-multiple.cpp ****     ba->setDataA(12);
 306              		.loc 1 65 0
 307 00a2 BE0C0000 		movl	$12, %esi
 307      00
 308 00a7 4889DF   		movq	%rbx, %rdi
 309 00aa E8000000 		call	_ZN6baseA28setDataAEi
 309      00
 310              	.LVL35:
  66:complex-multiple.cpp ****     ba->getDataA();
 311              		.loc 1 66 0
 312 00af 488B03   		movq	(%rbx), %rax
 313 00b2 4889DF   		movq	%rbx, %rdi
 314 00b5 FF10     		call	*(%rax)
 315              	.LVL36:
  67:complex-multiple.cpp **** 
  68:complex-multiple.cpp ****     baseB2 *bb = sb;
 316              		.loc 1 68 0
 317 00b7 488D6B10 		leaq	16(%rbx), %rbp
 318 00bb 4885DB   		testq	%rbx, %rbx
 319 00be B8000000 		movl	$0, %eax
 319      00
 320 00c3 480F44E8 		cmove	%rax, %rbp
GAS LISTING /tmp/cc0T43e8.s 			page 10


 321              	.LVL37:
  69:complex-multiple.cpp **** 
  70:complex-multiple.cpp ****     bb->setDataB(13);
 322              		.loc 1 70 0
 323 00c7 BE0D0000 		movl	$13, %esi
 323      00
 324 00cc 4889EF   		movq	%rbp, %rdi
 325 00cf E8000000 		call	_ZN6baseB28setDataBEi
 325      00
 326              	.LVL38:
  71:complex-multiple.cpp ****     bb->getDataB();
 327              		.loc 1 71 0
 328 00d4 488B4500 		movq	0(%rbp), %rax
 329 00d8 4889EF   		movq	%rbp, %rdi
 330 00db FF10     		call	*(%rax)
 331              	.LVL39:
  72:complex-multiple.cpp **** 
  73:complex-multiple.cpp ****     printf("sb->getSum()=%d", sb->getSum());
 332              		.loc 1 73 0
 333 00dd 488B03   		movq	(%rbx), %rax
 334 00e0 4889DF   		movq	%rbx, %rdi
 335 00e3 FF5008   		call	*8(%rax)
 336              	.LVL40:
 337              	.LBB18:
 338              	.LBB19:
 339              		.loc 2 104 0
 340 00e6 89C2     		movl	%eax, %edx
 341 00e8 BE000000 		movl	$.LC2, %esi
 341      00
 342 00ed BF010000 		movl	$1, %edi
 342      00
 343 00f2 B8000000 		movl	$0, %eax
 343      00
 344 00f7 E8000000 		call	__printf_chk
 344      00
 345              	.LVL41:
 346              	.LBE19:
 347              	.LBE18:
 348              	.LBE17:
  74:complex-multiple.cpp ****            
  75:complex-multiple.cpp ****     return 0;
  76:complex-multiple.cpp **** 
  77:complex-multiple.cpp **** }
 349              		.loc 1 77 0
 350 00fc B8000000 		movl	$0, %eax
 350      00
 351 0101 4883C408 		addq	$8, %rsp
 352              		.cfi_def_cfa_offset 24
 353 0105 5B       		popq	%rbx
 354              		.cfi_def_cfa_offset 16
 355              	.LVL42:
 356 0106 5D       		popq	%rbp
 357              		.cfi_def_cfa_offset 8
 358              	.LVL43:
 359 0107 C3       		ret
 360              		.cfi_endproc
 361              	.LFE26:
GAS LISTING /tmp/cc0T43e8.s 			page 11


 363              		.weak	_ZTS6baseA2
 364              		.section	.rodata._ZTS6baseA2,"aG",@progbits,_ZTS6baseA2,comdat
 367              	_ZTS6baseA2:
 368 0000 36626173 		.string	"6baseA2"
 368      65413200 
 369              		.weak	_ZTI6baseA2
 370              		.section	.rodata._ZTI6baseA2,"aG",@progbits,_ZTI6baseA2,comdat
 371              		.align 16
 374              	_ZTI6baseA2:
 375 0000 00000000 		.quad	_ZTVN10__cxxabiv117__class_type_infoE+16
 375      00000000 
 376 0008 00000000 		.quad	_ZTS6baseA2
 376      00000000 
 377              		.weak	_ZTS6baseB2
 378              		.section	.rodata._ZTS6baseB2,"aG",@progbits,_ZTS6baseB2,comdat
 381              	_ZTS6baseB2:
 382 0000 36626173 		.string	"6baseB2"
 382      65423200 
 383              		.weak	_ZTI6baseB2
 384              		.section	.rodata._ZTI6baseB2,"aG",@progbits,_ZTI6baseB2,comdat
 385              		.align 16
 388              	_ZTI6baseB2:
 389 0000 00000000 		.quad	_ZTVN10__cxxabiv117__class_type_infoE+16
 389      00000000 
 390 0008 00000000 		.quad	_ZTS6baseB2
 390      00000000 
 391              		.weak	_ZTS8subBoth2
 392              		.section	.rodata._ZTS8subBoth2,"aG",@progbits,_ZTS8subBoth2,comdat
 395              	_ZTS8subBoth2:
 396 0000 38737562 		.string	"8subBoth2"
 396      426F7468 
 396      3200
 397              		.weak	_ZTI8subBoth2
 398              		.section	.rodata._ZTI8subBoth2,"aG",@progbits,_ZTI8subBoth2,comdat
 399              		.align 32
 402              	_ZTI8subBoth2:
 403 0000 00000000 		.quad	_ZTVN10__cxxabiv121__vmi_class_type_infoE+16
 403      00000000 
 404 0008 00000000 		.quad	_ZTS8subBoth2
 404      00000000 
 405 0010 00000000 		.long	0
 406 0014 02000000 		.long	2
 407 0018 00000000 		.quad	_ZTI6baseA2
 407      00000000 
 408 0020 02000000 		.quad	2
 408      00000000 
 409 0028 00000000 		.quad	_ZTI6baseB2
 409      00000000 
 410 0030 02100000 		.quad	4098
 410      00000000 
 411              		.weak	_ZTV6baseA2
 412              		.section	.rodata._ZTV6baseA2,"aG",@progbits,_ZTV6baseA2,comdat
 413              		.align 16
 416              	_ZTV6baseA2:
 417 0000 00000000 		.quad	0
 417      00000000 
 418 0008 00000000 		.quad	_ZTI6baseA2
GAS LISTING /tmp/cc0T43e8.s 			page 12


 418      00000000 
 419 0010 00000000 		.quad	_ZNK6baseA28getDataAEv
 419      00000000 
 420              		.weak	_ZTV6baseB2
 421              		.section	.rodata._ZTV6baseB2,"aG",@progbits,_ZTV6baseB2,comdat
 422              		.align 16
 425              	_ZTV6baseB2:
 426 0000 00000000 		.quad	0
 426      00000000 
 427 0008 00000000 		.quad	_ZTI6baseB2
 427      00000000 
 428 0010 00000000 		.quad	_ZNK6baseB28getDataBEv
 428      00000000 
 429              		.weak	_ZTV8subBoth2
 430              		.section	.rodata._ZTV8subBoth2,"aG",@progbits,_ZTV8subBoth2,comdat
 431              		.align 32
 434              	_ZTV8subBoth2:
 435 0000 00000000 		.quad	0
 435      00000000 
 436 0008 00000000 		.quad	_ZTI8subBoth2
 436      00000000 
 437 0010 00000000 		.quad	_ZNK8subBoth28getDataAEv
 437      00000000 
 438 0018 00000000 		.quad	_ZNK8subBoth26getSumEv
 438      00000000 
 439 0020 00000000 		.quad	_ZNK8subBoth28getDataBEv
 439      00000000 
 440 0028 F0FFFFFF 		.quad	-16
 440      FFFFFFFF 
 441 0030 00000000 		.quad	_ZTI8subBoth2
 441      00000000 
 442 0038 00000000 		.quad	_ZThn16_NK8subBoth28getDataBEv
 442      00000000 
 443              		.text
 444              	.Letext0:
GAS LISTING /tmp/cc0T43e8.s 			page 13


DEFINED SYMBOLS
                            *ABS*:0000000000000000 complex-multiple.cpp
     /tmp/cc0T43e8.s:7      .text:0000000000000000 _ZNK6baseA28getDataAEv
     /tmp/cc0T43e8.s:23     .text:0000000000000004 _ZNK6baseB28getDataBEv
     /tmp/cc0T43e8.s:38     .text:0000000000000008 _ZNK8subBoth26getSumEv
     /tmp/cc0T43e8.s:88     .text:000000000000002a _ZNK8subBoth28getDataAEv
     /tmp/cc0T43e8.s:129    .text:000000000000004c _ZNK8subBoth28getDataBEv
     /tmp/cc0T43e8.s:165    .text:000000000000006f _ZThn16_NK8subBoth28getDataBEv
     /tmp/cc0T43e8.s:177    .text:0000000000000076 _ZN6baseA28setDataAEi
     /tmp/cc0T43e8.s:191    .text:000000000000007a _ZN6baseB28setDataBEi
     /tmp/cc0T43e8.s:206    .text._ZN6baseA2C2Ev:0000000000000000 _ZN6baseA2C2Ev
     /tmp/cc0T43e8.s:416    .rodata._ZTV6baseA2:0000000000000000 _ZTV6baseA2
     /tmp/cc0T43e8.s:206    .text._ZN6baseA2C2Ev:0000000000000000 _ZN6baseA2C1Ev
     /tmp/cc0T43e8.s:225    .text._ZN6baseB2C2Ev:0000000000000000 _ZN6baseB2C2Ev
     /tmp/cc0T43e8.s:425    .rodata._ZTV6baseB2:0000000000000000 _ZTV6baseB2
     /tmp/cc0T43e8.s:225    .text._ZN6baseB2C2Ev:0000000000000000 _ZN6baseB2C1Ev
     /tmp/cc0T43e8.s:244    .text._ZN8subBoth2C2Ev:0000000000000000 _ZN8subBoth2C2Ev
     /tmp/cc0T43e8.s:434    .rodata._ZTV8subBoth2:0000000000000000 _ZTV8subBoth2
     /tmp/cc0T43e8.s:244    .text._ZN8subBoth2C2Ev:0000000000000000 _ZN8subBoth2C1Ev
     /tmp/cc0T43e8.s:278    .text:000000000000007e _Z15complexMultipleiPPKc
     /tmp/cc0T43e8.s:367    .rodata._ZTS6baseA2:0000000000000000 _ZTS6baseA2
     /tmp/cc0T43e8.s:374    .rodata._ZTI6baseA2:0000000000000000 _ZTI6baseA2
     /tmp/cc0T43e8.s:381    .rodata._ZTS6baseB2:0000000000000000 _ZTS6baseB2
     /tmp/cc0T43e8.s:388    .rodata._ZTI6baseB2:0000000000000000 _ZTI6baseB2
     /tmp/cc0T43e8.s:395    .rodata._ZTS8subBoth2:0000000000000000 _ZTS8subBoth2
     /tmp/cc0T43e8.s:402    .rodata._ZTI8subBoth2:0000000000000000 _ZTI8subBoth2
                           .group:0000000000000000 _ZN6baseA2C5Ev
                           .group:0000000000000000 _ZN6baseB2C5Ev
                           .group:0000000000000000 _ZN8subBoth2C5Ev

UNDEFINED SYMBOLS
__printf_chk
_Znwm
_ZTVN10__cxxabiv117__class_type_infoE
_ZTVN10__cxxabiv121__vmi_class_type_infoE
