	.section	__TEXT,__text,regular,pure_instructions
	.globl	_main
	.align	4, 0x90
_main:                                  ## @main
	.cfi_startproc
## BB#0:
	pushq	%rbp
Ltmp2:
	.cfi_def_cfa_offset 16
Ltmp3:
	.cfi_offset %rbp, -16
	movq	%rsp, %rbp
Ltmp4:
	.cfi_def_cfa_register %rbp
	subq	$32, %rsp
	leaq	-24(%rbp), %rax
	movl	$13, %ecx
	movl	$0, -4(%rbp)
	movl	%edi, -8(%rbp)
	movq	%rsi, -16(%rbp)
	movq	%rax, %rdi
	movl	%ecx, %esi
	callq	__ZN15onefield_structC1Ei
	movl	$0, %eax
	addq	$32, %rsp
	popq	%rbp
	retq
	.cfi_endproc

	.section	__TEXT,__textcoal_nt,coalesced,pure_instructions
	.globl	__ZN15onefield_structC1Ei
	.weak_def_can_be_hidden	__ZN15onefield_structC1Ei
	.align	4, 0x90
__ZN15onefield_structC1Ei:              ## @_ZN15onefield_structC1Ei
	.cfi_startproc
## BB#0:
	pushq	%rbp
Ltmp7:
	.cfi_def_cfa_offset 16
Ltmp8:
	.cfi_offset %rbp, -16
	movq	%rsp, %rbp
Ltmp9:
	.cfi_def_cfa_register %rbp
	subq	$16, %rsp
	movq	%rdi, -8(%rbp)
	movl	%esi, -12(%rbp)
	movq	-8(%rbp), %rdi
	movl	-12(%rbp), %esi
	callq	__ZN15onefield_structC2Ei
	addq	$16, %rsp
	popq	%rbp
	retq
	.cfi_endproc

	.globl	__ZN15onefield_structC2Ei
	.weak_def_can_be_hidden	__ZN15onefield_structC2Ei
	.align	4, 0x90
__ZN15onefield_structC2Ei:              ## @_ZN15onefield_structC2Ei
	.cfi_startproc
## BB#0:
	pushq	%rbp
Ltmp12:
	.cfi_def_cfa_offset 16
Ltmp13:
	.cfi_offset %rbp, -16
	movq	%rsp, %rbp
Ltmp14:
	.cfi_def_cfa_register %rbp
	movq	%rdi, -8(%rbp)
	movl	%esi, -12(%rbp)
	movq	-8(%rbp), %rdi
	movl	-12(%rbp), %esi
	movl	%esi, (%rdi)
	popq	%rbp
	retq
	.cfi_endproc


.subsections_via_symbols
