GAS LISTING /tmp/ccKR4lDH.s 			page 1


   1              		.file	"subclass-vtable.cpp"
   2              		.text
   3              	.Ltext0:
   4              		.align 2
   5              		.globl	_ZN10onefieldSV8setFieldEi
   7              	_ZN10onefieldSV8setFieldEi:
   8              	.LFB11:
   9              		.file 1 "subclass-vtable.cpp"
   1:subclass-vtable.cpp **** class onefieldSV {
   2:subclass-vtable.cpp ****   private:
   3:subclass-vtable.cpp ****     int field;
   4:subclass-vtable.cpp ****   public:
   5:subclass-vtable.cpp ****     virtual void setField(int f);
   6:subclass-vtable.cpp ****     virtual int getField() const;
   7:subclass-vtable.cpp **** };
   8:subclass-vtable.cpp **** 
   9:subclass-vtable.cpp **** class onefieldSV_subclass : public onefieldSV {
  10:subclass-vtable.cpp ****   private:
  11:subclass-vtable.cpp ****     int otherfield;
  12:subclass-vtable.cpp ****   public:
  13:subclass-vtable.cpp ****     // Override setField, but not getField.
  14:subclass-vtable.cpp ****     virtual void setField(int f);
  15:subclass-vtable.cpp **** };
  16:subclass-vtable.cpp **** 
  17:subclass-vtable.cpp **** void setFieldToValue(onefieldSV f) {
  18:subclass-vtable.cpp ****   f.setField(33);
  19:subclass-vtable.cpp **** }
  20:subclass-vtable.cpp **** 
  21:subclass-vtable.cpp **** int subclassVtable(int argc, const char **argv) {
  22:subclass-vtable.cpp ****     onefieldSV of;
  23:subclass-vtable.cpp ****     onefieldSV_subclass ofs;
  24:subclass-vtable.cpp **** 
  25:subclass-vtable.cpp ****     of.setField(13);
  26:subclass-vtable.cpp ****     ofs.setField(17);
  27:subclass-vtable.cpp **** 
  28:subclass-vtable.cpp ****     setFieldToValue(ofs);
  29:subclass-vtable.cpp **** 
  30:subclass-vtable.cpp ****     onefieldSV *ofp = new onefieldSV_subclass;
  31:subclass-vtable.cpp **** 
  32:subclass-vtable.cpp ****     ofp->setField(27);
  33:subclass-vtable.cpp **** 
  34:subclass-vtable.cpp ****     int i = ofp->getField();
  35:subclass-vtable.cpp **** 
  36:subclass-vtable.cpp ****     delete ofp;
  37:subclass-vtable.cpp **** 
  38:subclass-vtable.cpp ****     return i + of.getField();
  39:subclass-vtable.cpp **** }
  40:subclass-vtable.cpp **** 
  41:subclass-vtable.cpp **** 
  42:subclass-vtable.cpp **** void onefieldSV::setField(int f) {
  10              		.loc 1 42 0
  11              		.cfi_startproc
  12              	.LVL0:
  43:subclass-vtable.cpp ****     this->field = f;
  13              		.loc 1 43 0
  14 0000 897708   		movl	%esi, 8(%rdi)
  15 0003 C3       		ret
GAS LISTING /tmp/ccKR4lDH.s 			page 2


  16              		.cfi_endproc
  17              	.LFE11:
  19              		.align 2
  20              		.globl	_ZNK10onefieldSV8getFieldEv
  22              	_ZNK10onefieldSV8getFieldEv:
  23              	.LFB12:
  44:subclass-vtable.cpp **** }
  45:subclass-vtable.cpp **** int onefieldSV::getField() const {
  24              		.loc 1 45 0
  25              		.cfi_startproc
  26              	.LVL1:
  46:subclass-vtable.cpp ****     return this->field;
  27              		.loc 1 46 0
  28 0004 8B4708   		movl	8(%rdi), %eax
  47:subclass-vtable.cpp **** }
  29              		.loc 1 47 0
  30 0007 C3       		ret
  31              		.cfi_endproc
  32              	.LFE12:
  34              		.align 2
  35              		.globl	_ZN19onefieldSV_subclass8setFieldEi
  37              	_ZN19onefieldSV_subclass8setFieldEi:
  38              	.LFB13:
  48:subclass-vtable.cpp **** 
  49:subclass-vtable.cpp **** void onefieldSV_subclass::setField(int f) {
  39              		.loc 1 49 0
  40              		.cfi_startproc
  41              	.LVL2:
  42 0008 55       		pushq	%rbp
  43              		.cfi_def_cfa_offset 16
  44              		.cfi_offset 6, -16
  45 0009 53       		pushq	%rbx
  46              		.cfi_def_cfa_offset 24
  47              		.cfi_offset 3, -24
  48 000a 4889FB   		movq	%rdi, %rbx
  49 000d 89F5     		movl	%esi, %ebp
  50:subclass-vtable.cpp ****     onefieldSV::setField(f);
  50              		.loc 1 50 0
  51 000f E8000000 		call	_ZN10onefieldSV8setFieldEi
  51      00
  52              	.LVL3:
  51:subclass-vtable.cpp ****     otherfield = f;
  53              		.loc 1 51 0
  54 0014 896B0C   		movl	%ebp, 12(%rbx)
  52:subclass-vtable.cpp **** }
  55              		.loc 1 52 0
  56 0017 5B       		popq	%rbx
  57              		.cfi_def_cfa_offset 16
  58              	.LVL4:
  59 0018 5D       		popq	%rbp
  60              		.cfi_def_cfa_offset 8
  61              	.LVL5:
  62 0019 C3       		ret
  63              		.cfi_endproc
  64              	.LFE13:
  66              		.globl	_Z15setFieldToValue10onefieldSV
  68              	_Z15setFieldToValue10onefieldSV:
GAS LISTING /tmp/ccKR4lDH.s 			page 3


  69              	.LFB0:
  17:subclass-vtable.cpp ****   f.setField(33);
  70              		.loc 1 17 0
  71              		.cfi_startproc
  72              	.LVL6:
  18:subclass-vtable.cpp **** }
  73              		.loc 1 18 0
  74 001a BE210000 		movl	$33, %esi
  74      00
  75 001f E8000000 		call	_ZN10onefieldSV8setFieldEi
  75      00
  76              	.LVL7:
  77 0024 F3C3     		rep ret
  78              		.cfi_endproc
  79              	.LFE0:
  81              		.section	.text._ZN10onefieldSVC2Ev,"axG",@progbits,_ZN10onefieldSVC5Ev,comdat
  82              		.align 2
  83              		.weak	_ZN10onefieldSVC2Ev
  85              	_ZN10onefieldSVC2Ev:
  86              	.LFB3:
   1:subclass-vtable.cpp ****   private:
  87              		.loc 1 1 0
  88              		.cfi_startproc
  89              	.LVL8:
  90              	.LBB2:
   1:subclass-vtable.cpp ****   private:
  91              		.loc 1 1 0
  92 0000 48C70700 		movq	$_ZTV10onefieldSV+16, (%rdi)
  92      000000
  93 0007 C3       		ret
  94              	.LBE2:
  95              		.cfi_endproc
  96              	.LFE3:
  98              		.weak	_ZN10onefieldSVC1Ev
  99              		.set	_ZN10onefieldSVC1Ev,_ZN10onefieldSVC2Ev
 100              		.section	.text._ZN19onefieldSV_subclassC2Ev,"axG",@progbits,_ZN19onefieldSV_subclassC5Ev,comdat
 101              		.align 2
 102              		.weak	_ZN19onefieldSV_subclassC2Ev
 104              	_ZN19onefieldSV_subclassC2Ev:
 105              	.LFB6:
   9:subclass-vtable.cpp ****   private:
 106              		.loc 1 9 0
 107              		.cfi_startproc
 108              	.LVL9:
 109 0000 53       		pushq	%rbx
 110              		.cfi_def_cfa_offset 16
 111              		.cfi_offset 3, -16
 112 0001 4889FB   		movq	%rdi, %rbx
 113              	.LBB3:
   9:subclass-vtable.cpp ****   private:
 114              		.loc 1 9 0
 115 0004 E8000000 		call	_ZN10onefieldSVC2Ev
 115      00
 116              	.LVL10:
 117 0009 48C70300 		movq	$_ZTV19onefieldSV_subclass+16, (%rbx)
 117      000000
 118              	.LBE3:
GAS LISTING /tmp/ccKR4lDH.s 			page 4


 119 0010 5B       		popq	%rbx
 120              		.cfi_def_cfa_offset 8
 121              	.LVL11:
 122 0011 C3       		ret
 123              		.cfi_endproc
 124              	.LFE6:
 126              		.weak	_ZN19onefieldSV_subclassC1Ev
 127              		.set	_ZN19onefieldSV_subclassC1Ev,_ZN19onefieldSV_subclassC2Ev
 128              		.section	.text._ZN10onefieldSVC2ERKS_,"axG",@progbits,_ZN10onefieldSVC5ERKS_,comdat
 129              		.align 2
 130              		.weak	_ZN10onefieldSVC2ERKS_
 132              	_ZN10onefieldSVC2ERKS_:
 133              	.LFB9:
   1:subclass-vtable.cpp ****   private:
 134              		.loc 1 1 0
 135              		.cfi_startproc
 136              	.LVL12:
 137              	.LBB4:
   1:subclass-vtable.cpp ****   private:
 138              		.loc 1 1 0
 139 0000 48C70700 		movq	$_ZTV10onefieldSV+16, (%rdi)
 139      000000
 140 0007 8B4608   		movl	8(%rsi), %eax
 141 000a 894708   		movl	%eax, 8(%rdi)
 142 000d C3       		ret
 143              	.LBE4:
 144              		.cfi_endproc
 145              	.LFE9:
 147              		.weak	_ZN10onefieldSVC1ERKS_
 148              		.set	_ZN10onefieldSVC1ERKS_,_ZN10onefieldSVC2ERKS_
 149              		.text
 150              		.globl	_Z14subclassVtableiPPKc
 152              	_Z14subclassVtableiPPKc:
 153              	.LFB1:
  21:subclass-vtable.cpp ****     onefieldSV of;
 154              		.loc 1 21 0
 155              		.cfi_startproc
 156              	.LVL13:
 157 0026 55       		pushq	%rbp
 158              		.cfi_def_cfa_offset 16
 159              		.cfi_offset 6, -16
 160 0027 53       		pushq	%rbx
 161              		.cfi_def_cfa_offset 24
 162              		.cfi_offset 3, -24
 163 0028 4883EC38 		subq	$56, %rsp
 164              		.cfi_def_cfa_offset 80
 165              	.LBB5:
  22:subclass-vtable.cpp ****     onefieldSV_subclass ofs;
 166              		.loc 1 22 0
 167 002c 4889E7   		movq	%rsp, %rdi
 168              	.LVL14:
 169 002f E8000000 		call	_ZN10onefieldSVC1Ev
 169      00
 170              	.LVL15:
  23:subclass-vtable.cpp **** 
 171              		.loc 1 23 0
 172 0034 488D7C24 		leaq	16(%rsp), %rdi
GAS LISTING /tmp/ccKR4lDH.s 			page 5


 172      10
 173 0039 E8000000 		call	_ZN19onefieldSV_subclassC1Ev
 173      00
 174              	.LVL16:
  25:subclass-vtable.cpp ****     ofs.setField(17);
 175              		.loc 1 25 0
 176 003e BE0D0000 		movl	$13, %esi
 176      00
 177 0043 4889E7   		movq	%rsp, %rdi
 178 0046 E8000000 		call	_ZN10onefieldSV8setFieldEi
 178      00
 179              	.LVL17:
  26:subclass-vtable.cpp **** 
 180              		.loc 1 26 0
 181 004b BE110000 		movl	$17, %esi
 181      00
 182 0050 488D7C24 		leaq	16(%rsp), %rdi
 182      10
 183 0055 E8000000 		call	_ZN19onefieldSV_subclass8setFieldEi
 183      00
 184              	.LVL18:
  28:subclass-vtable.cpp **** 
 185              		.loc 1 28 0
 186 005a 488D7424 		leaq	16(%rsp), %rsi
 186      10
 187 005f 488D7C24 		leaq	32(%rsp), %rdi
 187      20
 188 0064 E8000000 		call	_ZN10onefieldSVC1ERKS_
 188      00
 189              	.LVL19:
 190 0069 488D7C24 		leaq	32(%rsp), %rdi
 190      20
 191 006e E8000000 		call	_Z15setFieldToValue10onefieldSV
 191      00
 192              	.LVL20:
  30:subclass-vtable.cpp **** 
 193              		.loc 1 30 0
 194 0073 BF100000 		movl	$16, %edi
 194      00
 195 0078 E8000000 		call	_Znwm
 195      00
 196              	.LVL21:
 197 007d 4889C3   		movq	%rax, %rbx
 198 0080 4889C7   		movq	%rax, %rdi
 199 0083 E8000000 		call	_ZN19onefieldSV_subclassC1Ev
 199      00
 200              	.LVL22:
  32:subclass-vtable.cpp **** 
 201              		.loc 1 32 0
 202 0088 488B03   		movq	(%rbx), %rax
 203 008b BE1B0000 		movl	$27, %esi
 203      00
 204 0090 4889DF   		movq	%rbx, %rdi
 205 0093 FF10     		call	*(%rax)
 206              	.LVL23:
  34:subclass-vtable.cpp **** 
 207              		.loc 1 34 0
GAS LISTING /tmp/ccKR4lDH.s 			page 6


 208 0095 488B03   		movq	(%rbx), %rax
 209 0098 4889DF   		movq	%rbx, %rdi
 210 009b FF5008   		call	*8(%rax)
 211              	.LVL24:
 212 009e 89C5     		movl	%eax, %ebp
 213              	.LVL25:
  36:subclass-vtable.cpp **** 
 214              		.loc 1 36 0
 215 00a0 4889DF   		movq	%rbx, %rdi
 216 00a3 E8000000 		call	_ZdlPv
 216      00
 217              	.LVL26:
  38:subclass-vtable.cpp **** }
 218              		.loc 1 38 0
 219 00a8 4889E7   		movq	%rsp, %rdi
 220 00ab E8000000 		call	_ZNK10onefieldSV8getFieldEv
 220      00
 221              	.LVL27:
 222 00b0 01E8     		addl	%ebp, %eax
 223              	.LBE5:
  39:subclass-vtable.cpp **** 
 224              		.loc 1 39 0
 225 00b2 4883C438 		addq	$56, %rsp
 226              		.cfi_def_cfa_offset 24
 227 00b6 5B       		popq	%rbx
 228              		.cfi_def_cfa_offset 16
 229              	.LVL28:
 230 00b7 5D       		popq	%rbp
 231              		.cfi_def_cfa_offset 8
 232              	.LVL29:
 233 00b8 C3       		ret
 234              		.cfi_endproc
 235              	.LFE1:
 237              		.weak	_ZTS10onefieldSV
 238              		.section	.rodata._ZTS10onefieldSV,"aG",@progbits,_ZTS10onefieldSV,comdat
 241              	_ZTS10onefieldSV:
 242 0000 31306F6E 		.string	"10onefieldSV"
 242      65666965 
 242      6C645356 
 242      00
 243              		.weak	_ZTI10onefieldSV
 244              		.section	.rodata._ZTI10onefieldSV,"aG",@progbits,_ZTI10onefieldSV,comdat
 245              		.align 16
 248              	_ZTI10onefieldSV:
 249 0000 00000000 		.quad	_ZTVN10__cxxabiv117__class_type_infoE+16
 249      00000000 
 250 0008 00000000 		.quad	_ZTS10onefieldSV
 250      00000000 
 251              		.weak	_ZTS19onefieldSV_subclass
 252              		.section	.rodata._ZTS19onefieldSV_subclass,"aG",@progbits,_ZTS19onefieldSV_subclass,comdat
 253              		.align 16
 256              	_ZTS19onefieldSV_subclass:
 257 0000 31396F6E 		.string	"19onefieldSV_subclass"
 257      65666965 
 257      6C645356 
 257      5F737562 
 257      636C6173 
GAS LISTING /tmp/ccKR4lDH.s 			page 7


 258              		.weak	_ZTI19onefieldSV_subclass
 259              		.section	.rodata._ZTI19onefieldSV_subclass,"aG",@progbits,_ZTI19onefieldSV_subclass,comdat
 260              		.align 16
 263              	_ZTI19onefieldSV_subclass:
 264 0000 00000000 		.quad	_ZTVN10__cxxabiv120__si_class_type_infoE+16
 264      00000000 
 265 0008 00000000 		.quad	_ZTS19onefieldSV_subclass
 265      00000000 
 266 0010 00000000 		.quad	_ZTI10onefieldSV
 266      00000000 
 267              		.weak	_ZTV10onefieldSV
 268              		.section	.rodata._ZTV10onefieldSV,"aG",@progbits,_ZTV10onefieldSV,comdat
 269              		.align 32
 272              	_ZTV10onefieldSV:
 273 0000 00000000 		.quad	0
 273      00000000 
 274 0008 00000000 		.quad	_ZTI10onefieldSV
 274      00000000 
 275 0010 00000000 		.quad	_ZN10onefieldSV8setFieldEi
 275      00000000 
 276 0018 00000000 		.quad	_ZNK10onefieldSV8getFieldEv
 276      00000000 
 277              		.weak	_ZTV19onefieldSV_subclass
 278              		.section	.rodata._ZTV19onefieldSV_subclass,"aG",@progbits,_ZTV19onefieldSV_subclass,comdat
 279              		.align 32
 282              	_ZTV19onefieldSV_subclass:
 283 0000 00000000 		.quad	0
 283      00000000 
 284 0008 00000000 		.quad	_ZTI19onefieldSV_subclass
 284      00000000 
 285 0010 00000000 		.quad	_ZN19onefieldSV_subclass8setFieldEi
 285      00000000 
 286 0018 00000000 		.quad	_ZNK10onefieldSV8getFieldEv
 286      00000000 
 287              		.text
 288              	.Letext0:
GAS LISTING /tmp/ccKR4lDH.s 			page 8


DEFINED SYMBOLS
                            *ABS*:0000000000000000 subclass-vtable.cpp
     /tmp/ccKR4lDH.s:7      .text:0000000000000000 _ZN10onefieldSV8setFieldEi
     /tmp/ccKR4lDH.s:22     .text:0000000000000004 _ZNK10onefieldSV8getFieldEv
     /tmp/ccKR4lDH.s:37     .text:0000000000000008 _ZN19onefieldSV_subclass8setFieldEi
     /tmp/ccKR4lDH.s:68     .text:000000000000001a _Z15setFieldToValue10onefieldSV
     /tmp/ccKR4lDH.s:85     .text._ZN10onefieldSVC2Ev:0000000000000000 _ZN10onefieldSVC2Ev
     /tmp/ccKR4lDH.s:272    .rodata._ZTV10onefieldSV:0000000000000000 _ZTV10onefieldSV
     /tmp/ccKR4lDH.s:85     .text._ZN10onefieldSVC2Ev:0000000000000000 _ZN10onefieldSVC1Ev
     /tmp/ccKR4lDH.s:104    .text._ZN19onefieldSV_subclassC2Ev:0000000000000000 _ZN19onefieldSV_subclassC2Ev
     /tmp/ccKR4lDH.s:282    .rodata._ZTV19onefieldSV_subclass:0000000000000000 _ZTV19onefieldSV_subclass
     /tmp/ccKR4lDH.s:104    .text._ZN19onefieldSV_subclassC2Ev:0000000000000000 _ZN19onefieldSV_subclassC1Ev
     /tmp/ccKR4lDH.s:132    .text._ZN10onefieldSVC2ERKS_:0000000000000000 _ZN10onefieldSVC2ERKS_
     /tmp/ccKR4lDH.s:132    .text._ZN10onefieldSVC2ERKS_:0000000000000000 _ZN10onefieldSVC1ERKS_
     /tmp/ccKR4lDH.s:152    .text:0000000000000026 _Z14subclassVtableiPPKc
     /tmp/ccKR4lDH.s:241    .rodata._ZTS10onefieldSV:0000000000000000 _ZTS10onefieldSV
     /tmp/ccKR4lDH.s:248    .rodata._ZTI10onefieldSV:0000000000000000 _ZTI10onefieldSV
     /tmp/ccKR4lDH.s:256    .rodata._ZTS19onefieldSV_subclass:0000000000000000 _ZTS19onefieldSV_subclass
     /tmp/ccKR4lDH.s:263    .rodata._ZTI19onefieldSV_subclass:0000000000000000 _ZTI19onefieldSV_subclass
                           .group:0000000000000000 _ZN10onefieldSVC5Ev
                           .group:0000000000000000 _ZN19onefieldSV_subclassC5Ev
                           .group:0000000000000000 _ZN10onefieldSVC5ERKS_

UNDEFINED SYMBOLS
_Znwm
_ZdlPv
_ZTVN10__cxxabiv117__class_type_infoE
_ZTVN10__cxxabiv120__si_class_type_infoE
