GAS LISTING /tmp/cc7HJU9U.s 			page 1


   1              		.file	"template-max.cpp"
   2              		.text
   3              	.Ltext0:
   4              		.globl	_Z3maxIbET_S0_S0_
   6              	_Z3maxIbET_S0_S0_:
   7              	.LFB1:
   8              		.file 1 "template-max.cpp"
   1:template-max.cpp **** template <typename T>
   2:template-max.cpp **** T max(T x, T y) {
   3:template-max.cpp ****     if (x > y)
   4:template-max.cpp ****         return x;
   5:template-max.cpp ****     else
   6:template-max.cpp ****         return y;
   7:template-max.cpp **** }
   8:template-max.cpp **** 
   9:template-max.cpp **** template <>
  10:template-max.cpp **** bool max<bool>(bool x, bool y) {
   9              		.loc 1 10 0
  10              		.cfi_startproc
  11              	.LVL0:
  11:template-max.cpp ****     return (x || y);
  12              		.loc 1 11 0
  13 0000 89F0     		movl	%esi, %eax
  14 0002 09F8     		orl	%edi, %eax
  12:template-max.cpp **** }
  15              		.loc 1 12 0
  16 0004 C3       		ret
  17              		.cfi_endproc
  18              	.LFE1:
  20              		.section	.text._ZN9my_structC2Ei,"axG",@progbits,_ZN9my_structC5Ei,comdat
  21              		.align 2
  22              		.weak	_ZN9my_structC2Ei
  24              	_ZN9my_structC2Ei:
  25              	.LFB3:
  13:template-max.cpp **** 
  14:template-max.cpp **** struct my_struct {
  15:template-max.cpp ****     int _field;
  16:template-max.cpp ****     my_struct(int field) : _field(field) {}
  26              		.loc 1 16 0
  27              		.cfi_startproc
  28              	.LVL1:
  29              	.LBB2:
  30              		.loc 1 16 0
  31 0000 8937     		movl	%esi, (%rdi)
  32 0002 C3       		ret
  33              	.LBE2:
  34              		.cfi_endproc
  35              	.LFE3:
  37              		.weak	_ZN9my_structC1Ei
  38              		.set	_ZN9my_structC1Ei,_ZN9my_structC2Ei
  39              		.text
  40 0005 90       		.align 2
  41              		.globl	_ZNK9my_structgtERKS_
  43              	_ZNK9my_structgtERKS_:
  44              	.LFB5:
  17:template-max.cpp ****     bool operator>(const my_struct &rhs) const;
  18:template-max.cpp **** };
GAS LISTING /tmp/cc7HJU9U.s 			page 2


  19:template-max.cpp **** 
  20:template-max.cpp **** bool my_struct::operator>(const my_struct &rhs) const {
  45              		.loc 1 20 0
  46              		.cfi_startproc
  47              	.LVL2:
  21:template-max.cpp ****     return _field > rhs._field;
  48              		.loc 1 21 0
  49 0006 8B06     		movl	(%rsi), %eax
  50 0008 3907     		cmpl	%eax, (%rdi)
  51 000a 0F9FC0   		setg	%al
  22:template-max.cpp **** }
  52              		.loc 1 22 0
  53 000d C3       		ret
  54              		.cfi_endproc
  55              	.LFE5:
  57              		.section	.text._Z3maxIiET_S0_S0_,"axG",@progbits,_Z3maxIiET_S0_S0_,comdat
  58              		.weak	_Z3maxIiET_S0_S0_
  60              	_Z3maxIiET_S0_S0_:
  61              	.LFB7:
   2:template-max.cpp ****     if (x > y)
  62              		.loc 1 2 0
  63              		.cfi_startproc
  64              	.LVL3:
  65 0000 39F7     		cmpl	%esi, %edi
  66 0002 89F0     		movl	%esi, %eax
  67 0004 0F4DC7   		cmovge	%edi, %eax
   7:template-max.cpp **** 
  68              		.loc 1 7 0
  69 0007 C3       		ret
  70              		.cfi_endproc
  71              	.LFE7:
  73              		.section	.text._Z3maxI9my_structET_S1_S1_,"axG",@progbits,_Z3maxI9my_structET_S1_S1_,comdat
  74              		.weak	_Z3maxI9my_structET_S1_S1_
  76              	_Z3maxI9my_structET_S1_S1_:
  77              	.LFB9:
   2:template-max.cpp ****     if (x > y)
  78              		.loc 1 2 0
  79              		.cfi_startproc
  80 0000 4883EC28 		subq	$40, %rsp
  81              		.cfi_def_cfa_offset 48
  82 0004 897C2410 		movl	%edi, 16(%rsp)
  83 0008 893424   		movl	%esi, (%rsp)
   3:template-max.cpp ****         return x;
  84              		.loc 1 3 0
  85 000b 4889E6   		movq	%rsp, %rsi
  86 000e 488D7C24 		leaq	16(%rsp), %rdi
  86      10
  87 0013 E8000000 		call	_ZNK9my_structgtERKS_
  87      00
  88              	.LVL4:
  89 0018 84C0     		testb	%al, %al
  90 001a 7406     		je	.L6
   4:template-max.cpp ****     else
  91              		.loc 1 4 0
  92 001c 8B442410 		movl	16(%rsp), %eax
  93 0020 EB03     		jmp	.L7
  94              	.L6:
GAS LISTING /tmp/cc7HJU9U.s 			page 3


   6:template-max.cpp **** }
  95              		.loc 1 6 0
  96 0022 8B0424   		movl	(%rsp), %eax
  97              	.L7:
   7:template-max.cpp **** 
  98              		.loc 1 7 0
  99 0025 4883C428 		addq	$40, %rsp
 100              		.cfi_def_cfa_offset 8
 101 0029 C3       		ret
 102              		.cfi_endproc
 103              	.LFE9:
 105              		.text
 106              		.globl	_Z11templateMaxiPPKc
 108              	_Z11templateMaxiPPKc:
 109              	.LFB6:
  23:template-max.cpp **** 
  24:template-max.cpp **** int templateMax(int argc, const char **argv) {
 110              		.loc 1 24 0
 111              		.cfi_startproc
 112              	.LVL5:
 113 000e 53       		pushq	%rbx
 114              		.cfi_def_cfa_offset 16
 115              		.cfi_offset 3, -16
 116 000f 4883EC20 		subq	$32, %rsp
 117              		.cfi_def_cfa_offset 48
 118              	.LBB3:
  25:template-max.cpp ****     // int
  26:template-max.cpp ****     int i = max(2, 3);
 119              		.loc 1 26 0
 120 0013 BE030000 		movl	$3, %esi
 120      00
 121              	.LVL6:
 122 0018 BF020000 		movl	$2, %edi
 122      00
 123              	.LVL7:
 124 001d E8000000 		call	_Z3maxIiET_S0_S0_
 124      00
 125              	.LVL8:
 126 0022 89C3     		movl	%eax, %ebx
 127              	.LVL9:
  27:template-max.cpp **** 
  28:template-max.cpp ****     // double
  29:template-max.cpp ****     double d = max (2.3, 3.5);
  30:template-max.cpp **** 
  31:template-max.cpp ****     // my_struct
  32:template-max.cpp ****     my_struct x(37);
 128              		.loc 1 32 0
 129 0024 BE250000 		movl	$37, %esi
 129      00
 130 0029 4889E7   		movq	%rsp, %rdi
 131 002c E8000000 		call	_ZN9my_structC1Ei
 131      00
 132              	.LVL10:
  33:template-max.cpp ****     my_struct y(12);
 133              		.loc 1 33 0
 134 0031 BE0C0000 		movl	$12, %esi
 134      00
GAS LISTING /tmp/cc7HJU9U.s 			page 4


 135 0036 488D7C24 		leaq	16(%rsp), %rdi
 135      10
 136 003b E8000000 		call	_ZN9my_structC1Ei
 136      00
 137              	.LVL11:
 138              	.LBE3:
  34:template-max.cpp ****     my_struct m = max (x, y);
  35:template-max.cpp **** 
  36:template-max.cpp ****     // bool
  37:template-max.cpp ****     bool bx = true;
  38:template-max.cpp ****     bool by = false;
  39:template-max.cpp ****     bool b = max(bx, by);
  40:template-max.cpp **** 
  41:template-max.cpp ****     return i;
  42:template-max.cpp **** }
 139              		.loc 1 42 0
 140 0040 89D8     		movl	%ebx, %eax
 141 0042 4883C420 		addq	$32, %rsp
 142              		.cfi_def_cfa_offset 16
 143 0046 5B       		popq	%rbx
 144              		.cfi_def_cfa_offset 8
 145              	.LVL12:
 146 0047 C3       		ret
 147              		.cfi_endproc
 148              	.LFE6:
 150              	.Letext0:
GAS LISTING /tmp/cc7HJU9U.s 			page 5


DEFINED SYMBOLS
                            *ABS*:0000000000000000 template-max.cpp
     /tmp/cc7HJU9U.s:6      .text:0000000000000000 _Z3maxIbET_S0_S0_
     /tmp/cc7HJU9U.s:24     .text._ZN9my_structC2Ei:0000000000000000 _ZN9my_structC2Ei
     /tmp/cc7HJU9U.s:24     .text._ZN9my_structC2Ei:0000000000000000 _ZN9my_structC1Ei
     /tmp/cc7HJU9U.s:43     .text:0000000000000006 _ZNK9my_structgtERKS_
     /tmp/cc7HJU9U.s:60     .text._Z3maxIiET_S0_S0_:0000000000000000 _Z3maxIiET_S0_S0_
     /tmp/cc7HJU9U.s:76     .text._Z3maxI9my_structET_S1_S1_:0000000000000000 _Z3maxI9my_structET_S1_S1_
     /tmp/cc7HJU9U.s:108    .text:000000000000000e _Z11templateMaxiPPKc
                           .group:0000000000000000 _ZN9my_structC5Ei

NO UNDEFINED SYMBOLS
