GAS LISTING /tmp/ccrgLAPL.s 			page 1


   1              		.file	"virtual-sub.cpp"
   2              		.text
   3              	.Ltext0:
   4              		.align 2
   5              		.globl	_ZNK10bottomBase11getBaseDataEv
   7              	_ZNK10bottomBase11getBaseDataEv:
   8              	.LFB19:
   9              		.file 1 "virtual-sub.cpp"
   1:virtual-sub.cpp **** #include <stdio.h>
   2:virtual-sub.cpp **** 
   3:virtual-sub.cpp **** class bottomBase {
   4:virtual-sub.cpp ****     int baseData;
   5:virtual-sub.cpp ****   public:
   6:virtual-sub.cpp ****     virtual int getBaseData() const;
   7:virtual-sub.cpp **** };
   8:virtual-sub.cpp **** 
   9:virtual-sub.cpp **** class baseA : public virtual bottomBase {
  10:virtual-sub.cpp ****     int dataA;
  11:virtual-sub.cpp ****   public:
  12:virtual-sub.cpp ****     void setDataA(int a);
  13:virtual-sub.cpp ****     virtual int getDataA() const;
  14:virtual-sub.cpp **** };
  15:virtual-sub.cpp **** 
  16:virtual-sub.cpp **** int bottomBase::getBaseData() const {
  10              		.loc 1 16 0
  11              		.cfi_startproc
  12              	.LVL0:
  17:virtual-sub.cpp ****     return baseData;
  13              		.loc 1 17 0
  14 0000 8B4708   		movl	8(%rdi), %eax
  18:virtual-sub.cpp **** }
  15              		.loc 1 18 0
  16 0003 C3       		ret
  17              		.cfi_endproc
  18              	.LFE19:
  20              		.align 2
  21              		.globl	_ZNK5baseA8getDataAEv
  23              	_ZNK5baseA8getDataAEv:
  24              	.LFB21:
  19:virtual-sub.cpp **** 
  20:virtual-sub.cpp **** void baseA::setDataA(int a) {
  21:virtual-sub.cpp ****     dataA = a;
  22:virtual-sub.cpp **** }
  23:virtual-sub.cpp **** int baseA::getDataA() const {
  25              		.loc 1 23 0
  26              		.cfi_startproc
  27              	.LVL1:
  24:virtual-sub.cpp ****     return dataA;
  28              		.loc 1 24 0
  29 0004 8B4708   		movl	8(%rdi), %eax
  25:virtual-sub.cpp **** }
  30              		.loc 1 25 0
  31 0007 C3       		ret
  32              		.cfi_endproc
  33              	.LFE21:
  35              		.align 2
  36              		.globl	_ZN5baseA8setDataAEi
GAS LISTING /tmp/ccrgLAPL.s 			page 2


  38              	_ZN5baseA8setDataAEi:
  39              	.LFB20:
  20:virtual-sub.cpp ****     dataA = a;
  40              		.loc 1 20 0
  41              		.cfi_startproc
  42              	.LVL2:
  21:virtual-sub.cpp **** }
  43              		.loc 1 21 0
  44 0008 897708   		movl	%esi, 8(%rdi)
  45 000b C3       		ret
  46              		.cfi_endproc
  47              	.LFE20:
  49              		.section	.text._ZN10bottomBaseC2Ev,"axG",@progbits,_ZN10bottomBaseC5Ev,comdat
  50              		.align 2
  51              		.weak	_ZN10bottomBaseC2Ev
  53              	_ZN10bottomBaseC2Ev:
  54              	.LFB25:
   3:virtual-sub.cpp ****     int baseData;
  55              		.loc 1 3 0
  56              		.cfi_startproc
  57              	.LVL3:
  58              	.LBB2:
   3:virtual-sub.cpp ****     int baseData;
  59              		.loc 1 3 0
  60 0000 48C70700 		movq	$_ZTV10bottomBase+16, (%rdi)
  60      000000
  61 0007 C3       		ret
  62              	.LBE2:
  63              		.cfi_endproc
  64              	.LFE25:
  66              		.weak	_ZN10bottomBaseC1Ev
  67              		.set	_ZN10bottomBaseC1Ev,_ZN10bottomBaseC2Ev
  68              		.section	.text._ZN5baseAC1Ev,"axG",@progbits,_ZN5baseAC1Ev,comdat
  69              		.align 2
  70              		.weak	_ZN5baseAC1Ev
  72              	_ZN5baseAC1Ev:
  73              	.LFB28:
   9:virtual-sub.cpp ****     int dataA;
  74              		.loc 1 9 0
  75              		.cfi_startproc
  76              	.LVL4:
  77 0000 53       		pushq	%rbx
  78              		.cfi_def_cfa_offset 16
  79              		.cfi_offset 3, -16
  80 0001 4889FB   		movq	%rdi, %rbx
  81              	.LBB3:
   9:virtual-sub.cpp ****     int dataA;
  82              		.loc 1 9 0
  83 0004 488D7F10 		leaq	16(%rdi), %rdi
  84              	.LVL5:
  85 0008 E8000000 		call	_ZN10bottomBaseC2Ev
  85      00
  86              	.LVL6:
  87 000d 48C70300 		movq	$_ZTV5baseA+24, (%rbx)
  87      000000
  88 0014 48C74310 		movq	$_ZTV5baseA+56, 16(%rbx)
  88      00000000 
GAS LISTING /tmp/ccrgLAPL.s 			page 3


  89              	.LBE3:
  90 001c 5B       		popq	%rbx
  91              		.cfi_def_cfa_offset 8
  92              	.LVL7:
  93 001d C3       		ret
  94              		.cfi_endproc
  95              	.LFE28:
  97              		.text
  98              		.globl	main
 100              	main:
 101              	.LFB22:
  26:virtual-sub.cpp **** 
  27:virtual-sub.cpp **** int main(int argc, char **argv) {
 102              		.loc 1 27 0
 103              		.cfi_startproc
 104              	.LVL8:
 105 000c 53       		pushq	%rbx
 106              		.cfi_def_cfa_offset 16
 107              		.cfi_offset 3, -16
 108              	.LBB4:
  28:virtual-sub.cpp **** 
  29:virtual-sub.cpp ****     baseA *ba = new baseA();
 109              		.loc 1 29 0
 110 000d BF200000 		movl	$32, %edi
 110      00
 111              	.LVL9:
 112 0012 E8000000 		call	_Znwm
 112      00
 113              	.LVL10:
 114 0017 4889C3   		movq	%rax, %rbx
 115 001a 48C70000 		movq	$0, (%rax)
 115      000000
 116 0021 C7400800 		movl	$0, 8(%rax)
 116      000000
 117 0028 48C74010 		movq	$0, 16(%rax)
 117      00000000 
 118 0030 C7401800 		movl	$0, 24(%rax)
 118      000000
 119 0037 4889C7   		movq	%rax, %rdi
 120 003a E8000000 		call	_ZN5baseAC1Ev
 120      00
 121              	.LVL11:
  30:virtual-sub.cpp **** 
  31:virtual-sub.cpp ****     int i  = ba->getDataA();
 122              		.loc 1 31 0
 123 003f 488B03   		movq	(%rbx), %rax
 124 0042 4889DF   		movq	%rbx, %rdi
 125 0045 FF10     		call	*(%rax)
 126              	.LVL12:
  32:virtual-sub.cpp **** 
  33:virtual-sub.cpp ****     bottomBase *botb = ba;
 127              		.loc 1 33 0
 128 0047 4885DB   		testq	%rbx, %rbx
 129 004a 740C     		je	.L9
 130              		.loc 1 33 0 is_stmt 0 discriminator 1
 131 004c 488B03   		movq	(%rbx), %rax
 132 004f 4889DF   		movq	%rbx, %rdi
GAS LISTING /tmp/ccrgLAPL.s 			page 4


 133 0052 480378E8 		addq	-24(%rax), %rdi
 134 0056 EB05     		jmp	.L8
 135              	.L9:
 136              		.loc 1 33 0
 137 0058 BF000000 		movl	$0, %edi
 137      00
 138              	.L8:
 139              	.LVL13:
  34:virtual-sub.cpp **** 
  35:virtual-sub.cpp ****     int j = botb->getBaseData();
 140              		.loc 1 35 0 is_stmt 1 discriminator 3
 141 005d 488B07   		movq	(%rdi), %rax
 142 0060 FF10     		call	*(%rax)
 143              	.LVL14:
 144              	.LBE4:
  36:virtual-sub.cpp **** 
  37:virtual-sub.cpp ****     return 0;
  38:virtual-sub.cpp **** }
 145              		.loc 1 38 0 discriminator 3
 146 0062 B8000000 		movl	$0, %eax
 146      00
 147 0067 5B       		popq	%rbx
 148              		.cfi_def_cfa_offset 8
 149              	.LVL15:
 150 0068 C3       		ret
 151              		.cfi_endproc
 152              	.LFE22:
 154              		.weak	_ZTS10bottomBase
 155              		.section	.rodata._ZTS10bottomBase,"aG",@progbits,_ZTS10bottomBase,comdat
 158              	_ZTS10bottomBase:
 159 0000 3130626F 		.string	"10bottomBase"
 159      74746F6D 
 159      42617365 
 159      00
 160              		.weak	_ZTI10bottomBase
 161              		.section	.rodata._ZTI10bottomBase,"aG",@progbits,_ZTI10bottomBase,comdat
 162              		.align 16
 165              	_ZTI10bottomBase:
 166 0000 00000000 		.quad	_ZTVN10__cxxabiv117__class_type_infoE+16
 166      00000000 
 167 0008 00000000 		.quad	_ZTS10bottomBase
 167      00000000 
 168              		.weak	_ZTS5baseA
 169              		.section	.rodata._ZTS5baseA,"aG",@progbits,_ZTS5baseA,comdat
 172              	_ZTS5baseA:
 173 0000 35626173 		.string	"5baseA"
 173      654100
 174              		.weak	_ZTI5baseA
 175              		.section	.rodata._ZTI5baseA,"aG",@progbits,_ZTI5baseA,comdat
 176              		.align 32
 179              	_ZTI5baseA:
 180 0000 00000000 		.quad	_ZTVN10__cxxabiv121__vmi_class_type_infoE+16
 180      00000000 
 181 0008 00000000 		.quad	_ZTS5baseA
 181      00000000 
 182 0010 00000000 		.long	0
 183 0014 01000000 		.long	1
GAS LISTING /tmp/ccrgLAPL.s 			page 5


 184 0018 00000000 		.quad	_ZTI10bottomBase
 184      00000000 
 185 0020 03E8FFFF 		.quad	-6141
 185      FFFFFFFF 
 186              		.weak	_ZTV10bottomBase
 187              		.section	.rodata._ZTV10bottomBase,"aG",@progbits,_ZTV10bottomBase,comdat
 188              		.align 16
 191              	_ZTV10bottomBase:
 192 0000 00000000 		.quad	0
 192      00000000 
 193 0008 00000000 		.quad	_ZTI10bottomBase
 193      00000000 
 194 0010 00000000 		.quad	_ZNK10bottomBase11getBaseDataEv
 194      00000000 
 195              		.weak	_ZTT5baseA
 196              		.section	.rodata._ZTT5baseA,"aG",@progbits,_ZTV5baseA,comdat
 197              		.align 16
 200              	_ZTT5baseA:
 201 0000 00000000 		.quad	_ZTV5baseA+24
 201      00000000 
 202 0008 00000000 		.quad	_ZTV5baseA+56
 202      00000000 
 203              		.weak	_ZTV5baseA
 204              		.section	.rodata._ZTV5baseA,"aG",@progbits,_ZTV5baseA,comdat
 205              		.align 32
 208              	_ZTV5baseA:
 209 0000 10000000 		.quad	16
 209      00000000 
 210 0008 00000000 		.quad	0
 210      00000000 
 211 0010 00000000 		.quad	_ZTI5baseA
 211      00000000 
 212 0018 00000000 		.quad	_ZNK5baseA8getDataAEv
 212      00000000 
 213 0020 00000000 		.quad	0
 213      00000000 
 214 0028 F0FFFFFF 		.quad	-16
 214      FFFFFFFF 
 215 0030 00000000 		.quad	_ZTI5baseA
 215      00000000 
 216 0038 00000000 		.quad	_ZNK10bottomBase11getBaseDataEv
 216      00000000 
 217              		.text
 218              	.Letext0:
GAS LISTING /tmp/ccrgLAPL.s 			page 6


DEFINED SYMBOLS
                            *ABS*:0000000000000000 virtual-sub.cpp
     /tmp/ccrgLAPL.s:7      .text:0000000000000000 _ZNK10bottomBase11getBaseDataEv
     /tmp/ccrgLAPL.s:23     .text:0000000000000004 _ZNK5baseA8getDataAEv
     /tmp/ccrgLAPL.s:38     .text:0000000000000008 _ZN5baseA8setDataAEi
     /tmp/ccrgLAPL.s:53     .text._ZN10bottomBaseC2Ev:0000000000000000 _ZN10bottomBaseC2Ev
     /tmp/ccrgLAPL.s:191    .rodata._ZTV10bottomBase:0000000000000000 _ZTV10bottomBase
     /tmp/ccrgLAPL.s:53     .text._ZN10bottomBaseC2Ev:0000000000000000 _ZN10bottomBaseC1Ev
     /tmp/ccrgLAPL.s:72     .text._ZN5baseAC1Ev:0000000000000000 _ZN5baseAC1Ev
     /tmp/ccrgLAPL.s:208    .rodata._ZTV5baseA:0000000000000000 _ZTV5baseA
     /tmp/ccrgLAPL.s:100    .text:000000000000000c main
     /tmp/ccrgLAPL.s:158    .rodata._ZTS10bottomBase:0000000000000000 _ZTS10bottomBase
     /tmp/ccrgLAPL.s:165    .rodata._ZTI10bottomBase:0000000000000000 _ZTI10bottomBase
     /tmp/ccrgLAPL.s:172    .rodata._ZTS5baseA:0000000000000000 _ZTS5baseA
     /tmp/ccrgLAPL.s:179    .rodata._ZTI5baseA:0000000000000000 _ZTI5baseA
     /tmp/ccrgLAPL.s:200    .rodata._ZTT5baseA:0000000000000000 _ZTT5baseA
                           .group:0000000000000000 _ZN10bottomBaseC5Ev

UNDEFINED SYMBOLS
_Znwm
_ZTVN10__cxxabiv117__class_type_infoE
_ZTVN10__cxxabiv121__vmi_class_type_infoE
