GAS LISTING /tmp/ccz42Wyq.s 			page 1


   1              		.file	"vtable-null.cpp"
   2              		.text
   3              	.Ltext0:
   4              		.align 2
   5              		.globl	_ZNK8onefield8getFieldEv
   7              	_ZNK8onefield8getFieldEv:
   8              	.LFB8:
   9              		.file 1 "vtable-null.cpp"
   1:vtable-null.cpp **** class onefield {
   2:vtable-null.cpp ****   private:
   3:vtable-null.cpp ****     int field;
   4:vtable-null.cpp ****   public:
   5:vtable-null.cpp ****     virtual void setField(int f) = 0;
   6:vtable-null.cpp ****     virtual int getField() const;
   7:vtable-null.cpp **** };
   8:vtable-null.cpp **** 
   9:vtable-null.cpp **** class onefield_subclass : public onefield {
  10:vtable-null.cpp ****   private:
  11:vtable-null.cpp ****     int otherfield;
  12:vtable-null.cpp ****   public:
  13:vtable-null.cpp ****     // Override setField, but not getField.
  14:vtable-null.cpp ****     virtual void setField(int f);
  15:vtable-null.cpp **** };
  16:vtable-null.cpp **** 
  17:vtable-null.cpp **** int main(int argc, char **argv) {
  18:vtable-null.cpp ****     onefield_subclass ofs;
  19:vtable-null.cpp **** 
  20:vtable-null.cpp ****     ofs.setField(17);
  21:vtable-null.cpp **** 
  22:vtable-null.cpp ****     onefield *ofp = new onefield_subclass;
  23:vtable-null.cpp **** 
  24:vtable-null.cpp ****     ofp->setField(27);
  25:vtable-null.cpp **** 
  26:vtable-null.cpp ****     int i = ofp->getField();
  27:vtable-null.cpp **** 
  28:vtable-null.cpp ****     delete ofp;
  29:vtable-null.cpp **** 
  30:vtable-null.cpp ****     return i;
  31:vtable-null.cpp **** }
  32:vtable-null.cpp **** 
  33:vtable-null.cpp **** 
  34:vtable-null.cpp **** void onefield::setField(int f) {
  35:vtable-null.cpp ****     this->field = f;
  36:vtable-null.cpp **** }
  37:vtable-null.cpp **** int onefield::getField() const {
  10              		.loc 1 37 0
  11              		.cfi_startproc
  12              	.LVL0:
  38:vtable-null.cpp ****     return this->field;
  13              		.loc 1 38 0
  14 0000 8B4708   		movl	8(%rdi), %eax
  39:vtable-null.cpp **** }
  15              		.loc 1 39 0
  16 0003 C3       		ret
  17              		.cfi_endproc
  18              	.LFE8:
  20              		.section	.text._ZN8onefieldC2Ev,"axG",@progbits,_ZN8onefieldC5Ev,comdat
GAS LISTING /tmp/ccz42Wyq.s 			page 2


  21              		.align 2
  22              		.weak	_ZN8onefieldC2Ev
  24              	_ZN8onefieldC2Ev:
  25              	.LFB3:
   1:vtable-null.cpp **** class onefield {
  26              		.loc 1 1 0
  27              		.cfi_startproc
  28              	.LVL1:
  29              	.LBB2:
   1:vtable-null.cpp **** class onefield {
  30              		.loc 1 1 0
  31 0000 48C70700 		movq	$_ZTV8onefield+16, (%rdi)
  31      000000
  32 0007 C3       		ret
  33              	.LBE2:
  34              		.cfi_endproc
  35              	.LFE3:
  37              		.weak	_ZN8onefieldC1Ev
  38              		.set	_ZN8onefieldC1Ev,_ZN8onefieldC2Ev
  39              		.section	.text._ZN17onefield_subclassC2Ev,"axG",@progbits,_ZN17onefield_subclassC5Ev,comdat
  40              		.align 2
  41              		.weak	_ZN17onefield_subclassC2Ev
  43              	_ZN17onefield_subclassC2Ev:
  44              	.LFB5:
   9:vtable-null.cpp ****   private:
  45              		.loc 1 9 0
  46              		.cfi_startproc
  47              	.LVL2:
  48 0000 53       		pushq	%rbx
  49              		.cfi_def_cfa_offset 16
  50              		.cfi_offset 3, -16
  51 0001 4889FB   		movq	%rdi, %rbx
  52              	.LBB3:
   9:vtable-null.cpp ****   private:
  53              		.loc 1 9 0
  54 0004 E8000000 		call	_ZN8onefieldC2Ev
  54      00
  55              	.LVL3:
  56 0009 48C70300 		movq	$_ZTV17onefield_subclass+16, (%rbx)
  56      000000
  57              	.LBE3:
  58 0010 5B       		popq	%rbx
  59              		.cfi_def_cfa_offset 8
  60              	.LVL4:
  61 0011 C3       		ret
  62              		.cfi_endproc
  63              	.LFE5:
  65              		.weak	_ZN17onefield_subclassC1Ev
  66              		.set	_ZN17onefield_subclassC1Ev,_ZN17onefield_subclassC2Ev
  67              		.text
  68              		.align 2
  69              		.globl	_ZN8onefield8setFieldEi
  71              	_ZN8onefield8setFieldEi:
  72              	.LFB7:
  34:vtable-null.cpp ****     this->field = f;
  73              		.loc 1 34 0
  74              		.cfi_startproc
GAS LISTING /tmp/ccz42Wyq.s 			page 3


  75              	.LVL5:
  35:vtable-null.cpp **** }
  76              		.loc 1 35 0
  77 0004 897708   		movl	%esi, 8(%rdi)
  78 0007 C3       		ret
  79              		.cfi_endproc
  80              	.LFE7:
  82              		.align 2
  83              		.globl	_ZN17onefield_subclass8setFieldEi
  85              	_ZN17onefield_subclass8setFieldEi:
  86              	.LFB9:
  40:vtable-null.cpp **** 
  41:vtable-null.cpp **** void onefield_subclass::setField(int f) {
  87              		.loc 1 41 0
  88              		.cfi_startproc
  89              	.LVL6:
  90 0008 55       		pushq	%rbp
  91              		.cfi_def_cfa_offset 16
  92              		.cfi_offset 6, -16
  93 0009 53       		pushq	%rbx
  94              		.cfi_def_cfa_offset 24
  95              		.cfi_offset 3, -24
  96 000a 4889FB   		movq	%rdi, %rbx
  97 000d 89F5     		movl	%esi, %ebp
  42:vtable-null.cpp ****     onefield::setField(f);
  98              		.loc 1 42 0
  99 000f E8000000 		call	_ZN8onefield8setFieldEi
  99      00
 100              	.LVL7:
  43:vtable-null.cpp ****     otherfield = f;
 101              		.loc 1 43 0
 102 0014 896B0C   		movl	%ebp, 12(%rbx)
  44:vtable-null.cpp **** }
 103              		.loc 1 44 0
 104 0017 5B       		popq	%rbx
 105              		.cfi_def_cfa_offset 16
 106              	.LVL8:
 107 0018 5D       		popq	%rbp
 108              		.cfi_def_cfa_offset 8
 109              	.LVL9:
 110 0019 C3       		ret
 111              		.cfi_endproc
 112              	.LFE9:
 114              		.globl	main
 116              	main:
 117              	.LFB0:
  17:vtable-null.cpp ****     onefield_subclass ofs;
 118              		.loc 1 17 0
 119              		.cfi_startproc
 120              	.LVL10:
 121 001a 55       		pushq	%rbp
 122              		.cfi_def_cfa_offset 16
 123              		.cfi_offset 6, -16
 124 001b 53       		pushq	%rbx
 125              		.cfi_def_cfa_offset 24
 126              		.cfi_offset 3, -24
 127 001c 4883EC18 		subq	$24, %rsp
GAS LISTING /tmp/ccz42Wyq.s 			page 4


 128              		.cfi_def_cfa_offset 48
 129              	.LBB4:
  18:vtable-null.cpp **** 
 130              		.loc 1 18 0
 131 0020 4889E7   		movq	%rsp, %rdi
 132              	.LVL11:
 133 0023 E8000000 		call	_ZN17onefield_subclassC1Ev
 133      00
 134              	.LVL12:
  20:vtable-null.cpp **** 
 135              		.loc 1 20 0
 136 0028 BE110000 		movl	$17, %esi
 136      00
 137 002d 4889E7   		movq	%rsp, %rdi
 138 0030 E8000000 		call	_ZN17onefield_subclass8setFieldEi
 138      00
 139              	.LVL13:
  22:vtable-null.cpp **** 
 140              		.loc 1 22 0
 141 0035 BF100000 		movl	$16, %edi
 141      00
 142 003a E8000000 		call	_Znwm
 142      00
 143              	.LVL14:
 144 003f 4889C3   		movq	%rax, %rbx
 145 0042 4889C7   		movq	%rax, %rdi
 146 0045 E8000000 		call	_ZN17onefield_subclassC1Ev
 146      00
 147              	.LVL15:
  24:vtable-null.cpp **** 
 148              		.loc 1 24 0
 149 004a 488B03   		movq	(%rbx), %rax
 150 004d BE1B0000 		movl	$27, %esi
 150      00
 151 0052 4889DF   		movq	%rbx, %rdi
 152 0055 FF10     		call	*(%rax)
 153              	.LVL16:
  26:vtable-null.cpp **** 
 154              		.loc 1 26 0
 155 0057 488B03   		movq	(%rbx), %rax
 156 005a 4889DF   		movq	%rbx, %rdi
 157 005d FF5008   		call	*8(%rax)
 158              	.LVL17:
 159 0060 89C5     		movl	%eax, %ebp
 160              	.LVL18:
  28:vtable-null.cpp **** 
 161              		.loc 1 28 0
 162 0062 4889DF   		movq	%rbx, %rdi
 163 0065 E8000000 		call	_ZdlPv
 163      00
 164              	.LVL19:
 165              	.LBE4:
  31:vtable-null.cpp **** 
 166              		.loc 1 31 0
 167 006a 89E8     		movl	%ebp, %eax
 168 006c 4883C418 		addq	$24, %rsp
 169              		.cfi_def_cfa_offset 24
GAS LISTING /tmp/ccz42Wyq.s 			page 5


 170 0070 5B       		popq	%rbx
 171              		.cfi_def_cfa_offset 16
 172              	.LVL20:
 173 0071 5D       		popq	%rbp
 174              		.cfi_def_cfa_offset 8
 175              	.LVL21:
 176 0072 C3       		ret
 177              		.cfi_endproc
 178              	.LFE0:
 180              		.weak	_ZTS8onefield
 181              		.section	.rodata._ZTS8onefield,"aG",@progbits,_ZTS8onefield,comdat
 184              	_ZTS8onefield:
 185 0000 386F6E65 		.string	"8onefield"
 185      6669656C 
 185      6400
 186              		.weak	_ZTI8onefield
 187              		.section	.rodata._ZTI8onefield,"aG",@progbits,_ZTI8onefield,comdat
 188              		.align 16
 191              	_ZTI8onefield:
 192 0000 00000000 		.quad	_ZTVN10__cxxabiv117__class_type_infoE+16
 192      00000000 
 193 0008 00000000 		.quad	_ZTS8onefield
 193      00000000 
 194              		.weak	_ZTS17onefield_subclass
 195              		.section	.rodata._ZTS17onefield_subclass,"aG",@progbits,_ZTS17onefield_subclass,comdat
 196              		.align 16
 199              	_ZTS17onefield_subclass:
 200 0000 31376F6E 		.string	"17onefield_subclass"
 200      65666965 
 200      6C645F73 
 200      7562636C 
 200      61737300 
 201              		.weak	_ZTI17onefield_subclass
 202              		.section	.rodata._ZTI17onefield_subclass,"aG",@progbits,_ZTI17onefield_subclass,comdat
 203              		.align 16
 206              	_ZTI17onefield_subclass:
 207 0000 00000000 		.quad	_ZTVN10__cxxabiv120__si_class_type_infoE+16
 207      00000000 
 208 0008 00000000 		.quad	_ZTS17onefield_subclass
 208      00000000 
 209 0010 00000000 		.quad	_ZTI8onefield
 209      00000000 
 210              		.weak	_ZTV8onefield
 211              		.section	.rodata._ZTV8onefield,"aG",@progbits,_ZTV8onefield,comdat
 212              		.align 32
 215              	_ZTV8onefield:
 216 0000 00000000 		.quad	0
 216      00000000 
 217 0008 00000000 		.quad	_ZTI8onefield
 217      00000000 
 218 0010 00000000 		.quad	__cxa_pure_virtual
 218      00000000 
 219 0018 00000000 		.quad	_ZNK8onefield8getFieldEv
 219      00000000 
 220              		.weak	_ZTV17onefield_subclass
 221              		.section	.rodata._ZTV17onefield_subclass,"aG",@progbits,_ZTV17onefield_subclass,comdat
 222              		.align 32
GAS LISTING /tmp/ccz42Wyq.s 			page 6


 225              	_ZTV17onefield_subclass:
 226 0000 00000000 		.quad	0
 226      00000000 
 227 0008 00000000 		.quad	_ZTI17onefield_subclass
 227      00000000 
 228 0010 00000000 		.quad	_ZN17onefield_subclass8setFieldEi
 228      00000000 
 229 0018 00000000 		.quad	_ZNK8onefield8getFieldEv
 229      00000000 
 230              		.text
 231              	.Letext0:
GAS LISTING /tmp/ccz42Wyq.s 			page 7


DEFINED SYMBOLS
                            *ABS*:0000000000000000 vtable-null.cpp
     /tmp/ccz42Wyq.s:7      .text:0000000000000000 _ZNK8onefield8getFieldEv
     /tmp/ccz42Wyq.s:24     .text._ZN8onefieldC2Ev:0000000000000000 _ZN8onefieldC2Ev
     /tmp/ccz42Wyq.s:215    .rodata._ZTV8onefield:0000000000000000 _ZTV8onefield
     /tmp/ccz42Wyq.s:24     .text._ZN8onefieldC2Ev:0000000000000000 _ZN8onefieldC1Ev
     /tmp/ccz42Wyq.s:43     .text._ZN17onefield_subclassC2Ev:0000000000000000 _ZN17onefield_subclassC2Ev
     /tmp/ccz42Wyq.s:225    .rodata._ZTV17onefield_subclass:0000000000000000 _ZTV17onefield_subclass
     /tmp/ccz42Wyq.s:43     .text._ZN17onefield_subclassC2Ev:0000000000000000 _ZN17onefield_subclassC1Ev
     /tmp/ccz42Wyq.s:71     .text:0000000000000004 _ZN8onefield8setFieldEi
     /tmp/ccz42Wyq.s:85     .text:0000000000000008 _ZN17onefield_subclass8setFieldEi
     /tmp/ccz42Wyq.s:116    .text:000000000000001a main
     /tmp/ccz42Wyq.s:184    .rodata._ZTS8onefield:0000000000000000 _ZTS8onefield
     /tmp/ccz42Wyq.s:191    .rodata._ZTI8onefield:0000000000000000 _ZTI8onefield
     /tmp/ccz42Wyq.s:199    .rodata._ZTS17onefield_subclass:0000000000000000 _ZTS17onefield_subclass
     /tmp/ccz42Wyq.s:206    .rodata._ZTI17onefield_subclass:0000000000000000 _ZTI17onefield_subclass
                           .group:0000000000000000 _ZN8onefieldC5Ev
                           .group:0000000000000000 _ZN17onefield_subclassC5Ev

UNDEFINED SYMBOLS
_Znwm
_ZdlPv
_ZTVN10__cxxabiv117__class_type_infoE
_ZTVN10__cxxabiv120__si_class_type_infoE
__cxa_pure_virtual
